(lp0
(lp1
(lp2
(lp3
F2623.79
aF1413.64
aaa(lp4
g3
aa(lp5
g3
aa(lp6
g3
aa(lp7
g3
aa(lp8
g3
aa(lp9
g3
aa(lp10
g3
aa(lp11
g3
aa(lp12
g3
aa(lp13
(lp14
F2734.62
aF1644.91
aaa(lp15
g14
aa(lp16
g14
aa(lp17
g14
aa(lp18
(lp19
F2717.98
aF1748.54
aaa(lp20
g19
aa(lp21
g19
aa(lp22
g19
aa(lp23
g19
aa(lp24
g19
aa(lp25
g19
aa(lp26
(lp27
F2756.73
aF1861.17
aaa(lp28
g27
aa(lp29
g27
aa(lp30
(lp31
F2751.42
aF1969.59
aaa(lp32
g31
aa(lp33
g31
aa(lp34
g31
aa(lp35
g31
aa(lp36
(lp37
F2751.64
aF2075.26
aaa(lp38
g37
aa(lp39
g37
aa(lp40
g37
aa(lp41
g37
aa(lp42
(lp43
F2743.76
aF2173.95
aaa(lp44
g43
aa(lp45
g43
aa(lp46
g43
aa(lp47
g43
aa(lp48
g43
aa(lp49
(lp50
F2783.0
aF2280.83
aaa(lp51
g50
aa(lp52
(lp53
F2767.94
aF2378.24
aaa(lp54
g53
aa(lp55
g53
aa(lp56
g53
aa(lp57
g53
aa(lp58
(lp59
F2751.74
aF2474.5
aaa(lp60
g59
aa(lp61
g59
aa(lp62
g59
aa(lp63
g59
aa(lp64
(lp65
F2735.1
aF2578.63
aaa(lp66
g65
aa(lp67
g65
aa(lp68
(lp69
F2718.81
aF2684.58
aaa(lp70
g69
aa(lp71
g69
aa(lp72
g69
aa(lp73
g69
aa(lp74
(lp75
F2702.54
aF2787.23
aaa(lp76
g75
aa(lp77
g75
aa(lp78
g75
aa(lp79
g75
aa(lp80
g75
aa(lp81
(lp82
F2687.46
aF2893.54
aa(lp83
F2687.9402223355432
aF2890.3730881980437
aaa(lp84
g82
ag83
aa(lp85
g82
ag83
aa(lp86
(lp87
F2672.42
aF2993.51
aa(lp88
F2672.423346266148
aF2993.514676188727
aaa(lp89
g87
ag88
aa(lp90
g87
ag88
aa(lp91
g87
ag88
aa(lp92
g87
ag88
aa(lp93
(lp94
F2653.77
aF3100.39
aa(lp95
F2653.7785623724894
aF3100.390271789694
aaa(lp96
g94
ag95
aa(lp97
g94
ag95
aa(lp98
g94
ag95
aa(lp99
g94
ag95
aa(lp100
g94
ag95
aa(lp101
(lp102
F2636.82
aF3205.27
aa(lp103
F2638.41
aF3195.41
aa(lp104
F2638.88
aF3192.52
aaa(lp105
g102
ag103
ag104
aa(lp106
g102
ag103
ag104
aa(lp107
g102
ag103
ag104
aa(lp108
g102
ag103
ag104
aa(lp109
g102
ag103
ag104
aa(lp110
g102
ag103
ag104
aa(lp111
(lp112
F2765.69
aF3329.95
aaa(lp113
(lp114
F2762.09
aF3352.25
aaa(lp115
(lp116
F2748.87
aF3434.03
aaa(lp117
g116
aa(lp118
g116
aa(lp119
g116
aa(lp120
g116
aa(lp121
g116
aa(lp122
g116
aa(lp123
g116
aa(lp124
(lp125
F2800.48
aF3600.12
aaa(lp126
g125
aa(lp127
g125
aa(lp128
g125
aaa(lp129
(lp130
g3
aa(lp131
g3
aa(lp132
g3
aa(lp133
g3
aa(lp134
g3
aa(lp135
g3
aa(lp136
g3
aa(lp137
(lp138
F2751.18
aF1541.61
aaa(lp139
g138
aa(lp140
g138
aa(lp141
g14
aa(lp142
g14
aa(lp143
g14
aa(lp144
g14
aa(lp145
g19
aa(lp146
g19
aa(lp147
g19
aa(lp148
g19
aa(lp149
g19
aa(lp150
g19
aa(lp151
g19
aa(lp152
g27
aa(lp153
g27
aa(lp154
g27
aa(lp155
g31
aa(lp156
g31
aa(lp157
g31
aa(lp158
g31
aa(lp159
g31
aa(lp160
g37
aa(lp161
g37
aa(lp162
g37
aa(lp163
g37
aa(lp164
g37
aa(lp165
g43
aa(lp166
g43
aa(lp167
g43
aa(lp168
g43
aa(lp169
g43
aa(lp170
g43
aa(lp171
g50
aa(lp172
g50
aa(lp173
g53
aa(lp174
g53
aa(lp175
g53
aa(lp176
g53
aa(lp177
g53
aa(lp178
g59
aa(lp179
g59
aa(lp180
g59
aa(lp181
g59
aa(lp182
g59
aa(lp183
g65
aa(lp184
g65
aa(lp185
g65
aa(lp186
g69
aa(lp187
g69
aa(lp188
g69
aa(lp189
g69
aa(lp190
g69
aa(lp191
g75
aa(lp192
g75
aa(lp193
g75
aa(lp194
g75
aa(lp195
g75
aa(lp196
g75
aa(lp197
g82
ag83
aa(lp198
g82
ag83
aa(lp199
g82
ag83
aa(lp200
g87
ag88
aa(lp201
g87
ag88
aa(lp202
g87
ag88
aa(lp203
g87
ag88
aa(lp204
g87
ag88
aa(lp205
g94
ag95
aa(lp206
g94
ag95
aa(lp207
g94
ag95
aa(lp208
g94
ag95
aa(lp209
g94
ag95
aa(lp210
g94
ag95
aa(lp211
g102
ag103
ag104
aa(lp212
g102
ag103
ag104
aa(lp213
g102
ag103
ag104
aa(lp214
g102
ag103
ag104
aa(lp215
g102
ag103
ag104
aa(lp216
g102
ag103
ag104
aa(lp217
g102
ag103
ag104
aa(lp218
g112
aa(lp219
g114
aa(lp220
g116
aa(lp221
g116
aa(lp222
g116
aa(lp223
g116
aa(lp224
g116
aa(lp225
g116
aa(lp226
g116
aa(lp227
g116
aa(lp228
g125
aa(lp229
g125
aa(lp230
g125
aa(lp231
g125
aaa(lp232
(lp233
g3
aa(lp234
g3
aa(lp235
g3
aa(lp236
g3
aa(lp237
g3
aa(lp238
(lp239
F2759.63
aF1489.95
aaa(lp240
g138
aa(lp241
g138
aa(lp242
g138
aa(lp243
g138
aa(lp244
g14
aa(lp245
g14
aa(lp246
g14
aa(lp247
g14
aa(lp248
g19
aa(lp249
g19
aa(lp250
g19
aa(lp251
g19
aa(lp252
g19
aa(lp253
g19
aa(lp254
g19
aa(lp255
g27
aa(lp256
g27
aa(lp257
g27
aa(lp258
g31
aa(lp259
g31
aa(lp260
g31
aa(lp261
g31
aa(lp262
g31
aa(lp263
g37
aa(lp264
g37
aa(lp265
g37
aa(lp266
g37
aa(lp267
g37
aa(lp268
g43
aa(lp269
g43
aa(lp270
g43
aa(lp271
g43
aa(lp272
g43
aa(lp273
g43
aa(lp274
g50
aa(lp275
g50
aa(lp276
g53
aa(lp277
g53
aa(lp278
g53
aa(lp279
g53
aa(lp280
g53
aa(lp281
g59
aa(lp282
g59
aa(lp283
g59
aa(lp284
g59
aa(lp285
g59
aa(lp286
g65
aa(lp287
g65
aa(lp288
g65
aa(lp289
g69
aa(lp290
g69
aa(lp291
g69
aa(lp292
g69
aa(lp293
g69
aa(lp294
g75
aa(lp295
g75
aa(lp296
g75
aa(lp297
g75
aa(lp298
g75
aa(lp299
g75
aa(lp300
g82
ag83
aa(lp301
g82
ag83
aa(lp302
g82
ag83
aa(lp303
g87
ag88
aa(lp304
g87
ag88
aa(lp305
g87
ag88
aa(lp306
g87
ag88
aa(lp307
g87
ag88
aa(lp308
g87
ag88
aa(lp309
g94
ag95
aa(lp310
g94
ag95
aa(lp311
g94
ag95
aa(lp312
g94
ag95
aa(lp313
g94
ag95
aa(lp314
g102
ag103
ag104
aa(lp315
g102
ag103
ag104
aa(lp316
g102
ag103
ag104
aa(lp317
g102
ag103
ag104
aa(lp318
g102
ag103
ag104
aa(lp319
g102
ag103
ag104
aa(lp320
(lp321
F2768.89
aF3309.31
aaa(lp322
g112
aa(lp323
g114
aa(lp324
g116
aa(lp325
g116
aa(lp326
g116
aa(lp327
g116
aa(lp328
g116
aa(lp329
g116
aa(lp330
g116
aa(lp331
g116
aa(lp332
g125
aa(lp333
g125
aa(lp334
g125
aa(lp335
g125
aaa(lp336
(lp337
g3
aa(lp338
g3
aa(lp339
g3
aa(lp340
(lp341
F2767.82
aF1436.27
aaa(lp342
g341
aa(lp343
g239
aa(lp344
g138
aa(lp345
g138
aa(lp346
g138
aa(lp347
g138
aa(lp348
g14
aa(lp349
g14
aa(lp350
g14
aa(lp351
g14
aa(lp352
g19
aa(lp353
g19
aa(lp354
g19
aa(lp355
g19
aa(lp356
g19
aa(lp357
g19
aa(lp358
g19
aa(lp359
g27
aa(lp360
g27
aa(lp361
g27
aa(lp362
g31
aa(lp363
g31
aa(lp364
g31
aa(lp365
g31
aa(lp366
g31
aa(lp367
g37
aa(lp368
g37
aa(lp369
g37
aa(lp370
g37
aa(lp371
g37
aa(lp372
g43
aa(lp373
g43
aa(lp374
g43
aa(lp375
g43
aa(lp376
g43
aa(lp377
g43
aa(lp378
g50
aa(lp379
g50
aa(lp380
g53
aa(lp381
g53
aa(lp382
g53
aa(lp383
g53
aa(lp384
g53
aa(lp385
g59
aa(lp386
g59
aa(lp387
g59
aa(lp388
g59
aa(lp389
g59
aa(lp390
g65
aa(lp391
g65
aa(lp392
g65
aa(lp393
g69
aa(lp394
g69
aa(lp395
g69
aa(lp396
g69
aa(lp397
g69
aa(lp398
g75
aa(lp399
g75
aa(lp400
g75
aa(lp401
g75
aa(lp402
g75
aa(lp403
g75
aa(lp404
g82
ag83
aa(lp405
g82
ag83
aa(lp406
g82
ag83
aa(lp407
g82
ag83
aa(lp408
g87
ag88
aa(lp409
g87
ag88
aa(lp410
g87
ag88
aa(lp411
g87
ag88
aa(lp412
g87
ag88
aa(lp413
g94
ag95
aa(lp414
g94
ag95
aa(lp415
g94
ag95
aa(lp416
g94
ag95
aa(lp417
g94
ag95
aa(lp418
g102
ag103
ag104
aa(lp419
g102
ag103
ag104
aa(lp420
g102
ag103
ag104
aa(lp421
g102
ag103
ag104
aa(lp422
g102
ag103
ag104
aa(lp423
g321
aa(lp424
g321
aa(lp425
g112
aa(lp426
g114
aa(lp427
g116
aa(lp428
g116
aa(lp429
g116
aa(lp430
g116
aa(lp431
g116
aa(lp432
g116
aa(lp433
g116
aa(lp434
g116
aa(lp435
g125
aa(lp436
g125
aa(lp437
g125
aa(lp438
g125
aaa(lp439
(lp440
(lp441
F2770.11
aF1421.95
aaa(lp442
g441
aa(lp443
g441
aa(lp444
g341
aa(lp445
g341
aa(lp446
g239
aa(lp447
g138
aa(lp448
g138
aa(lp449
g138
aa(lp450
g138
aa(lp451
g14
aa(lp452
g14
aa(lp453
g14
aa(lp454
g14
aa(lp455
g19
aa(lp456
g19
aa(lp457
g19
aa(lp458
g19
aa(lp459
g19
aa(lp460
g19
aa(lp461
g19
aa(lp462
g27
aa(lp463
g27
aa(lp464
g27
aa(lp465
g31
aa(lp466
g31
aa(lp467
g31
aa(lp468
g31
aa(lp469
g31
aa(lp470
g37
aa(lp471
g37
aa(lp472
g37
aa(lp473
g37
aa(lp474
g37
aa(lp475
g43
aa(lp476
g43
aa(lp477
g43
aa(lp478
g43
aa(lp479
g43
aa(lp480
g43
aa(lp481
g50
aa(lp482
g50
aa(lp483
g53
aa(lp484
g53
aa(lp485
g53
aa(lp486
g53
aa(lp487
g53
aa(lp488
g59
aa(lp489
g59
aa(lp490
g59
aa(lp491
g59
aa(lp492
g59
aa(lp493
g65
aa(lp494
g65
aa(lp495
g65
aa(lp496
g69
aa(lp497
g69
aa(lp498
g69
aa(lp499
g69
aa(lp500
g69
aa(lp501
g69
aa(lp502
g75
aa(lp503
g75
aa(lp504
g75
aa(lp505
g75
aa(lp506
g75
aa(lp507
g82
ag83
aa(lp508
g82
ag83
aa(lp509
g82
ag83
aa(lp510
g82
ag83
aa(lp511
g87
ag88
aa(lp512
g87
ag88
aa(lp513
g87
ag88
aa(lp514
g87
ag88
aa(lp515
g87
ag88
aa(lp516
g94
ag95
aa(lp517
g94
ag95
aa(lp518
g94
ag95
aa(lp519
(lp520
F2799.06
aF3122.46
aaa(lp521
g520
aa(lp522
g102
ag103
ag104
aa(lp523
g102
ag103
ag104
aa(lp524
(lp525
F2781.63
aF3227.11
aa(lp526
F2783.47
aF3216.5
aa(lp527
F2783.7
aF3215.11
aaa(lp528
g525
ag526
ag527
aa(lp529
g321
aa(lp530
g321
aa(lp531
g321
aa(lp532
g112
aa(lp533
g114
aa(lp534
g116
aa(lp535
g116
aa(lp536
g116
aa(lp537
g116
aa(lp538
g116
aa(lp539
g116
aa(lp540
g116
aa(lp541
g116
aa(lp542
g125
aa(lp543
g125
aa(lp544
g125
aa(lp545
g125
aaa(lp546
(lp547
g441
aa(lp548
g441
aa(lp549
g441
aa(lp550
g341
aa(lp551
g341
aa(lp552
g239
aa(lp553
g138
aa(lp554
g138
aa(lp555
g138
aa(lp556
g138
aa(lp557
g14
aa(lp558
g14
aa(lp559
g14
aa(lp560
g14
aa(lp561
g14
aa(lp562
g19
aa(lp563
g19
aa(lp564
g19
aa(lp565
g19
aa(lp566
g19
aa(lp567
g27
aa(lp568
g27
aa(lp569
g27
aa(lp570
g27
aa(lp571
g31
aa(lp572
g31
aa(lp573
g31
aa(lp574
g31
aa(lp575
g31
aa(lp576
g37
aa(lp577
g37
aa(lp578
g37
aa(lp579
g37
aa(lp580
g37
aa(lp581
g43
aa(lp582
g43
aa(lp583
g43
aa(lp584
g43
aa(lp585
g43
aa(lp586
g43
aa(lp587
g50
aa(lp588
g50
aa(lp589
g53
aa(lp590
g53
aa(lp591
g53
aa(lp592
g53
aa(lp593
g53
aa(lp594
g59
aa(lp595
g59
aa(lp596
g59
aa(lp597
g59
aa(lp598
g59
aa(lp599
g65
aa(lp600
g65
aa(lp601
g65
aa(lp602
g65
aa(lp603
g69
aa(lp604
g69
aa(lp605
g69
aa(lp606
g69
aa(lp607
g69
aa(lp608
g75
aa(lp609
g75
aa(lp610
g75
aa(lp611
g75
aa(lp612
g75
aa(lp613
g82
ag83
aa(lp614
g82
ag83
aa(lp615
g82
ag83
aa(lp616
g82
ag83
aa(lp617
g87
ag88
aa(lp618
g87
ag88
aa(lp619
g87
ag88
aa(lp620
(lp621
F2815.61
aF3019.05
aaa(lp622
g621
aa(lp623
g520
aa(lp624
g520
aa(lp625
g520
aa(lp626
g520
aa(lp627
g520
aa(lp628
g520
aa(lp629
g525
ag526
ag527
aa(lp630
g525
ag526
ag527
aa(lp631
g525
ag526
ag527
aa(lp632
g321
aa(lp633
g321
aa(lp634
g321
aa(lp635
g112
aa(lp636
g114
aa(lp637
g116
aa(lp638
g116
aa(lp639
g116
aa(lp640
g116
aa(lp641
g116
aa(lp642
g116
aa(lp643
g116
aa(lp644
g116
aa(lp645
g125
aa(lp646
g125
aa(lp647
g125
aa(lp648
g125
aaa(lp649
(lp650
g441
aa(lp651
g441
aa(lp652
g441
aa(lp653
g341
aa(lp654
g341
aa(lp655
g239
aa(lp656
g239
aa(lp657
g138
aa(lp658
g138
aa(lp659
g138
aa(lp660
g14
aa(lp661
g14
aa(lp662
g14
aa(lp663
g14
aa(lp664
g14
aa(lp665
(lp666
F2764.02
aF1756.02
aaa(lp667
g666
aa(lp668
g666
aa(lp669
g666
aa(lp670
g666
aa(lp671
g27
aa(lp672
g27
aa(lp673
g27
aa(lp674
g27
aa(lp675
g27
aa(lp676
g31
aa(lp677
g31
aa(lp678
g31
aa(lp679
g31
aa(lp680
g37
aa(lp681
g37
aa(lp682
g37
aa(lp683
g37
aa(lp684
g37
aa(lp685
g43
aa(lp686
g43
aa(lp687
g43
aa(lp688
g43
aa(lp689
g43
aa(lp690
g50
aa(lp691
g50
aa(lp692
g50
aa(lp693
g53
aa(lp694
g53
aa(lp695
g53
aa(lp696
g53
aa(lp697
g53
aa(lp698
g53
aa(lp699
g59
aa(lp700
g59
aa(lp701
g59
aa(lp702
g59
aa(lp703
g65
aa(lp704
g65
aa(lp705
g65
aa(lp706
g65
aa(lp707
(lp708
F2796.4
aF2675.23
aaa(lp709
g708
aa(lp710
g708
aa(lp711
(lp712
F2793.05
aF2696.48
aaa(lp713
g712
aa(lp714
g712
aa(lp715
g75
aa(lp716
g75
aa(lp717
(lp718
F2848.72
aF2812.12
aaa(lp719
g718
aa(lp720
g82
ag83
aa(lp721
g82
ag83
aa(lp722
(lp723
F2832.17
aF2915.31
aaa(lp724
g723
aa(lp725
g621
aa(lp726
g621
aa(lp727
g621
aa(lp728
g621
aa(lp729
g621
aa(lp730
g520
aa(lp731
g520
aa(lp732
g520
aa(lp733
g520
aa(lp734
g520
aa(lp735
g520
aa(lp736
g525
ag526
ag527
aa(lp737
g525
ag526
ag527
aa(lp738
g525
ag526
ag527
aa(lp739
g321
aa(lp740
g321
aa(lp741
g321
aa(lp742
g112
aa(lp743
g114
aa(lp744
g114
aa(lp745
g116
aa(lp746
g116
aa(lp747
(lp748
F2758.89
aF3435.14
aaa(lp749
g748
aa(lp750
g748
aa(lp751
g748
aa(lp752
g748
aa(lp753
g125
aa(lp754
g125
aa(lp755
g125
aa(lp756
g125
aaa(lp757
(lp758
g441
aa(lp759
g441
aa(lp760
g441
aa(lp761
g341
aa(lp762
g341
aa(lp763
g239
aa(lp764
g239
aa(lp765
g138
aa(lp766
g138
aa(lp767
g138
aa(lp768
(lp769
F2846.94
aF1617.77
aaa(lp770
g769
aa(lp771
g14
aa(lp772
g14
aa(lp773
g14
aa(lp774
g666
aa(lp775
g666
aa(lp776
g666
aa(lp777
g666
aa(lp778
g666
aa(lp779
g27
aa(lp780
g27
aa(lp781
g27
aa(lp782
g27
aa(lp783
g27
aa(lp784
g31
aa(lp785
g31
aa(lp786
(lp787
F2826.51
aF1981.99
aaa(lp788
g787
aa(lp789
g787
aa(lp790
g37
aa(lp791
g37
aa(lp792
(lp793
F2810.75
aF2085.07
aa(lp794
F2818.57
aF2086.41
aaa(lp795
g793
ag794
aa(lp796
(lp797
F2796.83
aF2174.31
aa(lp798
F2798.68
aF2182.65
aa(lp799
F2804.13
aF2175.64
aaa(lp800
g797
ag798
ag799
aa(lp801
g797
ag798
ag799
aa(lp802
g797
ag798
ag799
aa(lp803
g797
ag798
ag799
aa(lp804
g50
aa(lp805
g50
aa(lp806
g50
aa(lp807
g50
aa(lp808
g53
aa(lp809
g53
aa(lp810
g53
aa(lp811
g53
aa(lp812
g53
aa(lp813
g59
aa(lp814
g59
aa(lp815
g59
aa(lp816
g59
aa(lp817
g65
aa(lp818
g65
aa(lp819
(lp820
F2809.87
aF2590.95
aaa(lp821
g820
aa(lp822
g708
aa(lp823
g708
aa(lp824
g708
aa(lp825
g712
aa(lp826
g712
aa(lp827
g712
aa(lp828
g712
aa(lp829
g718
aa(lp830
g718
aa(lp831
g718
aa(lp832
g718
aa(lp833
g723
aa(lp834
g723
aa(lp835
g723
aa(lp836
g621
aa(lp837
g621
aa(lp838
g621
aa(lp839
g621
aa(lp840
g621
aa(lp841
g520
aa(lp842
g520
aa(lp843
g520
aa(lp844
g520
aa(lp845
g520
aa(lp846
g520
aa(lp847
g525
ag526
ag527
aa(lp848
g525
ag526
ag527
aa(lp849
g525
ag526
ag527
aa(lp850
g525
ag526
ag527
aa(lp851
g321
aa(lp852
g321
aa(lp853
g112
aa(lp854
g114
aa(lp855
g114
aa(lp856
g116
aa(lp857
g116
aa(lp858
g748
aa(lp859
g748
aa(lp860
g748
aa(lp861
g748
aa(lp862
g125
aa(lp863
g125
aa(lp864
g125
aa(lp865
g125
aa(lp866
g125
aaa(lp867
(lp868
g441
aa(lp869
g441
aa(lp870
g441
aa(lp871
g341
aa(lp872
g341
aa(lp873
g239
aa(lp874
g239
aa(lp875
g138
aa(lp876
(lp877
F2856.45
aF1558.51
aaa(lp878
g769
aa(lp879
g769
aa(lp880
g769
aa(lp881
g769
aa(lp882
(lp883
F2877.24
aF1666.02
aaa(lp884
g883
aa(lp885
g666
aa(lp886
g666
aa(lp887
g666
aa(lp888
(lp889
F2860.33
aF1771.67
aa(lp890
F2867.36
aF1772.3
aaa(lp891
g889
ag890
aa(lp892
(lp893
F2843.69
aF1875.27
aa(lp894
F2845.8
aF1862.63
aa(lp895
F2852.21
aF1876.39
aaa(lp896
g893
ag894
ag895
aa(lp897
g893
ag894
ag895
aa(lp898
g893
ag894
ag895
aa(lp899
g787
aa(lp900
g787
aa(lp901
g787
aa(lp902
g787
aa(lp903
g787
aa(lp904
g787
aa(lp905
g793
ag794
aa(lp906
g793
ag794
aa(lp907
g793
ag794
aa(lp908
g793
ag794
aa(lp909
g793
ag794
aa(lp910
g797
ag798
ag799
aa(lp911
g797
ag798
ag799
aa(lp912
g797
ag798
ag799
aa(lp913
g797
ag798
ag799
aa(lp914
g50
aa(lp915
g50
aa(lp916
g50
aa(lp917
g50
aa(lp918
g53
aa(lp919
g53
aa(lp920
g53
aa(lp921
g53
aa(lp922
g53
aa(lp923
g59
aa(lp924
g59
aa(lp925
(lp926
F2898.74
aF2499.66
aaa(lp927
g820
aa(lp928
g820
aa(lp929
g820
aa(lp930
g820
aa(lp931
g820
aa(lp932
g820
aa(lp933
g708
aa(lp934
g708
aa(lp935
g712
aa(lp936
g712
aa(lp937
g712
aa(lp938
g718
aa(lp939
g718
aa(lp940
g718
aa(lp941
g718
aa(lp942
g718
aa(lp943
g723
aa(lp944
g723
aa(lp945
g723
aa(lp946
g621
aa(lp947
g621
aa(lp948
g621
aa(lp949
g621
aa(lp950
g621
aa(lp951
g621
aa(lp952
g520
aa(lp953
g520
aa(lp954
g520
aa(lp955
g520
aa(lp956
g520
aa(lp957
g525
ag526
ag527
aa(lp958
g525
ag526
ag527
aa(lp959
g525
ag526
ag527
aa(lp960
g525
ag526
ag527
aa(lp961
g321
aa(lp962
g321
aa(lp963
(lp964
F2841.86
aF3342.3
aaa(lp965
(lp966
F2838.37
aF3363.97
aaa(lp967
g966
aa(lp968
(lp969
F2824.34
aF3451.27
aaa(lp970
g969
aa(lp971
g969
aa(lp972
g969
aa(lp973
g969
aa(lp974
g969
aa(lp975
g125
aa(lp976
g125
aa(lp977
g125
aa(lp978
g125
aa(lp979
g125
aaa(lp980
(lp981
g441
aa(lp982
g441
aa(lp983
g441
aa(lp984
g341
aa(lp985
(lp986
F2909.65
aF1459.66
aa(lp987
F2918.7
aF1461.17
aaa(lp988
g239
aa(lp989
g877
aa(lp990
g877
aa(lp991
g877
aa(lp992
g769
aa(lp993
g769
aa(lp994
g769
aa(lp995
g769
aa(lp996
g883
aa(lp997
g883
aa(lp998
g883
aa(lp999
g889
ag890
aa(lp1000
g889
ag890
aa(lp1001
g889
ag890
aa(lp1002
g889
ag890
aa(lp1003
g893
ag894
ag895
aa(lp1004
g893
ag894
ag895
aa(lp1005
g893
ag894
ag895
aa(lp1006
g893
ag894
ag895
aa(lp1007
g893
ag894
ag895
aa(lp1008
(lp1009
F2834.86
aF1983.5
aaa(lp1010
g1009
aa(lp1011
g1009
aa(lp1012
g1009
aa(lp1013
g1009
aa(lp1014
g793
ag794
aa(lp1015
g793
ag794
aa(lp1016
g793
ag794
aa(lp1017
g793
ag794
aa(lp1018
g793
ag794
aa(lp1019
g797
ag798
ag799
aa(lp1020
g797
ag798
ag799
aa(lp1021
g797
ag798
ag799
aa(lp1022
g797
ag798
ag799
aa(lp1023
g50
aa(lp1024
g50
aa(lp1025
g50
aa(lp1026
g50
aa(lp1027
g53
aa(lp1028
g53
aa(lp1029
g53
aa(lp1030
(lp1031
F2914.15
aF2402.39
aaa(lp1032
g1031
aa(lp1033
g926
aa(lp1034
g926
aa(lp1035
g926
aa(lp1036
g926
aa(lp1037
g820
aa(lp1038
g820
aa(lp1039
g820
aa(lp1040
g820
aa(lp1041
g820
aa(lp1042
g708
aa(lp1043
g708
aa(lp1044
(lp1045
F2865.36
aF2708.15
aaa(lp1046
g1045
aa(lp1047
g718
aa(lp1048
g718
aa(lp1049
g718
aa(lp1050
g718
aa(lp1051
g718
aa(lp1052
g718
aa(lp1053
g723
aa(lp1054
g723
aa(lp1055
g723
aa(lp1056
g723
aa(lp1057
g621
aa(lp1058
g621
aa(lp1059
g621
aa(lp1060
g621
aa(lp1061
g621
aa(lp1062
g520
aa(lp1063
g520
aa(lp1064
g520
aa(lp1065
g520
aa(lp1066
g520
aa(lp1067
g525
ag526
ag527
aa(lp1068
g525
ag526
ag527
aa(lp1069
g525
ag526
ag527
aa(lp1070
g964
aa(lp1071
g964
aa(lp1072
g964
aa(lp1073
g964
aa(lp1074
g966
aa(lp1075
g966
aa(lp1076
g966
aa(lp1077
g969
aa(lp1078
g969
aa(lp1079
g969
aa(lp1080
(lp1081
F2895.06
aF3479.73
aaa(lp1082
g1081
aa(lp1083
g1081
aa(lp1084
(lp1085
F2879.41
aF3577.53
aaa(lp1086
g1085
aa(lp1087
g125
aa(lp1088
g125
aaa(lp1089
(lp1090
(lp1091
F2911.94
aF1445.32
aa(lp1092
F2920.99
aF1446.08
aaa(lp1093
g1091
ag1092
aa(lp1094
g1091
ag1092
aa(lp1095
g1091
ag1092
aa(lp1096
g986
ag987
aa(lp1097
g877
aa(lp1098
g877
aa(lp1099
g877
aa(lp1100
g877
aa(lp1101
g877
aa(lp1102
g769
aa(lp1103
g769
aa(lp1104
g883
aa(lp1105
g883
aa(lp1106
g883
aa(lp1107
g883
aa(lp1108
g889
ag890
aa(lp1109
g889
ag890
aa(lp1110
g889
ag890
aa(lp1111
g889
ag890
aa(lp1112
g889
ag890
aa(lp1113
g893
ag894
ag895
aa(lp1114
g893
ag894
ag895
aa(lp1115
g893
ag894
ag895
aa(lp1116
g893
ag894
ag895
aa(lp1117
g1009
aa(lp1118
g1009
aa(lp1119
g1009
aa(lp1120
g1009
aa(lp1121
g1009
aa(lp1122
g793
ag794
aa(lp1123
g793
ag794
aa(lp1124
g793
ag794
aa(lp1125
g793
ag794
aa(lp1126
g793
ag794
aa(lp1127
g797
ag798
ag799
aa(lp1128
g797
ag798
ag799
aa(lp1129
(lp1130
F2945.42
aF2205.88
aaa(lp1131
(lp1132
F2941.72
aF2229.73
aaa(lp1133
g50
aa(lp1134
g50
aa(lp1135
(lp1136
F2930.09
aF2305.09
aaa(lp1137
g1136
aa(lp1138
g1031
aa(lp1139
g1031
aa(lp1140
g1031
aa(lp1141
g1031
aa(lp1142
g1031
aa(lp1143
g926
aa(lp1144
g926
aa(lp1145
g926
aa(lp1146
g926
aa(lp1147
g926
aa(lp1148
g820
aa(lp1149
g820
aa(lp1150
(lp1151
F2882.27
aF2602.52
aaa(lp1152
g1151
aa(lp1153
g1045
aa(lp1154
g1045
aa(lp1155
g1045
aa(lp1156
g1045
aa(lp1157
g1045
aa(lp1158
g718
aa(lp1159
g718
aa(lp1160
g718
aa(lp1161
g718
aa(lp1162
g718
aa(lp1163
g723
aa(lp1164
g723
aa(lp1165
g723
aa(lp1166
g723
aa(lp1167
g621
aa(lp1168
g621
aa(lp1169
g621
aa(lp1170
g621
aa(lp1171
g621
aa(lp1172
g520
aa(lp1173
g520
aa(lp1174
g520
aa(lp1175
(lp1176
F2943.32
aF3145.7
aaa(lp1177
g1176
aa(lp1178
g525
ag526
ag527
aa(lp1179
g525
ag526
ag527
aa(lp1180
(lp1181
F2926.41
aF3250.56
aa(lp1182
F2927.91
aF3239.95
aa(lp1183
F2927.99
aF3239.48
aaa(lp1184
g964
aa(lp1185
g964
aa(lp1186
g964
aa(lp1187
g964
aa(lp1188
g966
aa(lp1189
g966
aa(lp1190
g966
aa(lp1191
(lp1192
F2904.39
aF3421.91
aaa(lp1193
g969
aa(lp1194
g1081
aa(lp1195
g1081
aa(lp1196
g1081
aa(lp1197
g1081
aa(lp1198
g1085
aa(lp1199
g1085
aa(lp1200
g1085
aa(lp1201
g1085
aaa(lp1202
(lp1203
g1091
ag1092
aa(lp1204
g1091
ag1092
aa(lp1205
g1091
ag1092
aa(lp1206
g1091
ag1092
aa(lp1207
g986
ag987
aa(lp1208
g986
ag987
aa(lp1209
(lp1210
F2901.72
aF1512.77
aaa(lp1211
(lp1212
F2893.45
aF1564.76
aa(lp1213
F2900.83
aF1565.0
aaa(lp1214
g1212
ag1213
aa(lp1215
g1212
ag1213
aa(lp1216
g1212
ag1213
aa(lp1217
g769
aa(lp1218
(lp1219
F2885.32
aF1667.66
aaa(lp1220
g1219
aa(lp1221
g1219
aa(lp1222
g1219
aa(lp1223
g889
ag890
aa(lp1224
g889
ag890
aa(lp1225
g889
ag890
aa(lp1226
g889
ag890
aa(lp1227
g889
ag890
aa(lp1228
g893
ag894
ag895
aa(lp1229
g893
ag894
ag895
aa(lp1230
g893
ag894
ag895
aa(lp1231
g893
ag894
ag895
aa(lp1232
g1009
aa(lp1233
g1009
aa(lp1234
g1009
aa(lp1235
g1009
aa(lp1236
g1009
aa(lp1237
g793
ag794
aa(lp1238
g793
ag794
aa(lp1239
g793
ag794
aa(lp1240
(lp1241
F2960.92
aF2108.81
aaa(lp1242
g1241
aa(lp1243
g1130
aa(lp1244
g1130
aa(lp1245
g1130
aa(lp1246
g1132
aa(lp1247
g1132
aa(lp1248
g1136
aa(lp1249
g1136
aa(lp1250
g1136
aa(lp1251
g1031
aa(lp1252
g1031
aa(lp1253
g1031
aa(lp1254
g1031
aa(lp1255
g1031
aa(lp1256
g926
aa(lp1257
g926
aa(lp1258
g926
aa(lp1259
g926
aa(lp1260
g926
aa(lp1261
g1151
aa(lp1262
g1151
aa(lp1263
g1151
aa(lp1264
g1151
aa(lp1265
g1151
aa(lp1266
g1045
aa(lp1267
g1045
aa(lp1268
g1045
aa(lp1269
g1045
aa(lp1270
g718
aa(lp1271
g718
aa(lp1272
g718
aa(lp1273
g718
aa(lp1274
g718
aa(lp1275
g723
aa(lp1276
g723
aa(lp1277
g723
aa(lp1278
g723
aa(lp1279
g621
aa(lp1280
g621
aa(lp1281
g621
aa(lp1282
(lp1283
F2959.88
aF3042.29
aaa(lp1284
g1283
aa(lp1285
g1176
aa(lp1286
g1176
aa(lp1287
g1176
aa(lp1288
g1176
aa(lp1289
g1176
aa(lp1290
g1176
aa(lp1291
g1181
ag1182
ag1183
aa(lp1292
g1181
ag1182
ag1183
aa(lp1293
g1181
ag1182
ag1183
aa(lp1294
(lp1295
F2911.8
aF3342.85
aa(lp1296
F2913.55
aF3331.76
aaa(lp1297
g1295
ag1296
aa(lp1298
g1295
ag1296
aa(lp1299
(lp1300
F2912.67
aF3353.64
aa(lp1301
F2913.55
aF3364.42
aaa(lp1302
(lp1303
F2911.82
aF3375.26
aaa(lp1304
g1303
aa(lp1305
g1192
aa(lp1306
g1081
aa(lp1307
g1081
aa(lp1308
g1081
aa(lp1309
g1081
aa(lp1310
g1081
aa(lp1311
g1085
aa(lp1312
g1085
aa(lp1313
g1085
aa(lp1314
g1085
aaa(lp1315
(lp1316
g1091
ag1092
aa(lp1317
g1091
ag1092
aa(lp1318
g1091
ag1092
aa(lp1319
g1091
ag1092
aa(lp1320
g986
ag987
aa(lp1321
g986
ag987
aa(lp1322
g1210
aa(lp1323
g1210
aa(lp1324
g1212
ag1213
aa(lp1325
g1212
ag1213
aa(lp1326
g1212
ag1213
aa(lp1327
g769
aa(lp1328
g1219
aa(lp1329
g1219
aa(lp1330
g1219
aa(lp1331
g1219
aa(lp1332
g889
ag890
aa(lp1333
g889
ag890
aa(lp1334
g889
ag890
aa(lp1335
g889
ag890
aa(lp1336
g889
ag890
aa(lp1337
g893
ag894
ag895
aa(lp1338
g893
ag894
ag895
aa(lp1339
(lp1340
F2994.21
aF1899.43
aaa(lp1341
g1340
aa(lp1342
g1009
aa(lp1343
g1009
aa(lp1344
g1009
aa(lp1345
(lp1346
F2977.39
aF2005.4
aaa(lp1347
g1346
aa(lp1348
g1241
aa(lp1349
g1241
aa(lp1350
g1241
aa(lp1351
g1241
aa(lp1352
g1241
aa(lp1353
g1130
aa(lp1354
g1130
aa(lp1355
g1130
aa(lp1356
g1132
aa(lp1357
g1132
aa(lp1358
g1136
aa(lp1359
g1136
aa(lp1360
g1136
aa(lp1361
g1031
aa(lp1362
g1031
aa(lp1363
g1031
aa(lp1364
g1031
aa(lp1365
g1031
aa(lp1366
g1031
aa(lp1367
g926
aa(lp1368
g926
aa(lp1369
g926
aa(lp1370
g926
aa(lp1371
g1151
aa(lp1372
g1151
aa(lp1373
g1151
aa(lp1374
g1151
aa(lp1375
g1151
aa(lp1376
g1045
aa(lp1377
g1045
aa(lp1378
g1045
aa(lp1379
g1045
aa(lp1380
g718
aa(lp1381
g718
aa(lp1382
g718
aa(lp1383
(lp1384
F2993.08
aF2835.25
aaa(lp1385
g1384
aa(lp1386
g723
aa(lp1387
g723
aa(lp1388
(lp1389
F2976.52
aF2938.55
aaa(lp1390
g1389
aa(lp1391
g1283
aa(lp1392
g1283
aa(lp1393
g1283
aa(lp1394
g1283
aa(lp1395
g1283
aa(lp1396
g1176
aa(lp1397
g1176
aa(lp1398
g1176
aa(lp1399
g1176
aa(lp1400
g1176
aa(lp1401
g1176
aa(lp1402
g1181
ag1182
ag1183
aa(lp1403
g1181
ag1182
ag1183
aa(lp1404
g1181
ag1182
ag1183
aa(lp1405
g1295
ag1296
aa(lp1406
g1295
ag1296
aa(lp1407
g1295
ag1296
aa(lp1408
g1300
ag1301
aa(lp1409
g1303
aa(lp1410
g1303
aa(lp1411
g1192
aa(lp1412
g1192
aa(lp1413
g1081
aa(lp1414
g1081
aa(lp1415
g1081
aa(lp1416
g1081
aa(lp1417
g1085
aa(lp1418
g1085
aa(lp1419
g1085
aa(lp1420
g1085
aaa(lp1421
(lp1422
(lp1423
F2939.8
aF1449.1
aaa(lp1424
g1423
aa(lp1425
g1423
aa(lp1426
g1423
aa(lp1427
(lp1428
F2930.74
aF1462.68
aaa(lp1429
g1428
aa(lp1430
g1210
aa(lp1431
g1210
aa(lp1432
g1212
ag1213
aa(lp1433
g1212
ag1213
aa(lp1434
g1212
ag1213
aa(lp1435
g769
aa(lp1436
g1219
aa(lp1437
g1219
aa(lp1438
g1219
aa(lp1439
g1219
aa(lp1440
g889
ag890
aa(lp1441
g889
ag890
aa(lp1442
g889
ag890
aa(lp1443
(lp1444
F3010.77
aF1795.69
aaa(lp1445
g1444
aa(lp1446
g1340
aa(lp1447
g1340
aa(lp1448
g1340
aa(lp1449
g1340
aa(lp1450
g1340
aa(lp1451
g1346
aa(lp1452
g1346
aa(lp1453
g1346
aa(lp1454
g1346
aa(lp1455
g1241
aa(lp1456
g1241
aa(lp1457
g1241
aa(lp1458
g1241
aa(lp1459
g1241
aa(lp1460
g1130
aa(lp1461
g1130
aa(lp1462
g1130
aa(lp1463
g1132
aa(lp1464
g1132
aa(lp1465
g1136
aa(lp1466
g1136
aa(lp1467
g1136
aa(lp1468
g1136
aa(lp1469
g1031
aa(lp1470
g1031
aa(lp1471
g1031
aa(lp1472
g1031
aa(lp1473
g1031
aa(lp1474
g926
aa(lp1475
g926
aa(lp1476
g926
aa(lp1477
g926
aa(lp1478
g1151
aa(lp1479
g1151
aa(lp1480
g1151
aa(lp1481
g1151
aa(lp1482
g1151
aa(lp1483
g1045
aa(lp1484
g1045
aa(lp1485
(lp1486
F3009.72
aF2731.39
aaa(lp1487
g1486
aa(lp1488
g1384
aa(lp1489
g1384
aa(lp1490
g1384
aa(lp1491
g1384
aa(lp1492
g1384
aa(lp1493
g1384
aa(lp1494
g1389
aa(lp1495
g1389
aa(lp1496
g1389
aa(lp1497
g1283
aa(lp1498
g1283
aa(lp1499
g1283
aa(lp1500
g1283
aa(lp1501
g1283
aa(lp1502
g1176
aa(lp1503
g1176
aa(lp1504
g1176
aa(lp1505
g1176
aa(lp1506
g1176
aa(lp1507
g1176
aa(lp1508
g1181
ag1182
ag1183
aa(lp1509
g1181
ag1182
ag1183
aa(lp1510
g1181
ag1182
ag1183
aa(lp1511
g1181
ag1182
ag1183
aa(lp1512
g1295
ag1296
aa(lp1513
g1295
ag1296
aa(lp1514
g1300
ag1301
aa(lp1515
g1303
aa(lp1516
g1303
aa(lp1517
g1192
aa(lp1518
g1192
aa(lp1519
g1081
aa(lp1520
g1081
aa(lp1521
g1081
aa(lp1522
(lp1523
F2975.96
aF3530.55
aaa(lp1524
g1085
aa(lp1525
g1085
aa(lp1526
g1085
aa(lp1527
g1085
aaa(lp1528
(lp1529
g1423
aa(lp1530
g1423
aa(lp1531
g1423
aa(lp1532
g1423
aa(lp1533
(lp1534
F2959.13
aF1467.55
aa(lp1535
F2965.46
aF1454.37
aa(lp1536
F2973.98
aF1472.54
aaa(lp1537
g1534
ag1535
ag1536
aa(lp1538
g1210
aa(lp1539
g1210
aa(lp1540
g1212
ag1213
aa(lp1541
g1212
ag1213
aa(lp1542
(lp1543
F3043.71
aF1588.75
aaa(lp1544
g1543
aa(lp1545
g1219
aa(lp1546
g1219
aa(lp1547
(lp1548
F3027.33
aF1691.94
aaa(lp1549
g1548
aa(lp1550
g1444
aa(lp1551
g1444
aa(lp1552
g1444
aa(lp1553
g1444
aa(lp1554
g1444
aa(lp1555
g1340
aa(lp1556
g1340
aa(lp1557
g1340
aa(lp1558
g1340
aa(lp1559
g1340
aa(lp1560
g1346
aa(lp1561
g1346
aa(lp1562
g1346
aa(lp1563
g1346
aa(lp1564
g1241
aa(lp1565
g1241
aa(lp1566
g1241
aa(lp1567
g1241
aa(lp1568
g1241
aa(lp1569
g1241
aa(lp1570
g1130
aa(lp1571
g1130
aa(lp1572
g1132
aa(lp1573
g1132
aa(lp1574
g1136
aa(lp1575
g1136
aa(lp1576
g1136
aa(lp1577
g1136
aa(lp1578
g1031
aa(lp1579
g1031
aa(lp1580
g1031
aa(lp1581
g1031
aa(lp1582
g1031
aa(lp1583
g926
aa(lp1584
g926
aa(lp1585
(lp1586
F3043.19
aF2522.35
aaa(lp1587
g1586
aa(lp1588
g1151
aa(lp1589
g1151
aa(lp1590
g1151
aa(lp1591
(lp1592
F3026.19
aF2625.39
aaa(lp1593
g1592
aa(lp1594
g1486
aa(lp1595
g1486
aa(lp1596
g1486
aa(lp1597
g1486
aa(lp1598
g1384
aa(lp1599
g1384
aa(lp1600
g1384
aa(lp1601
g1384
aa(lp1602
g1384
aa(lp1603
g1384
aa(lp1604
g1389
aa(lp1605
g1389
aa(lp1606
g1389
aa(lp1607
g1283
aa(lp1608
g1283
aa(lp1609
g1283
aa(lp1610
g1283
aa(lp1611
g1283
aa(lp1612
g1283
aa(lp1613
g1176
aa(lp1614
g1176
aa(lp1615
g1176
aa(lp1616
g1176
aa(lp1617
(lp1618
F3000.76
aF3198.63
aaa(lp1619
g1181
ag1182
ag1183
aa(lp1620
g1181
ag1182
ag1183
aa(lp1621
g1181
ag1182
ag1183
aa(lp1622
g1181
ag1182
ag1183
aa(lp1623
g1295
ag1296
aa(lp1624
g1295
ag1296
aa(lp1625
g1300
ag1301
aa(lp1626
g1303
aa(lp1627
(lp1628
F2970.02
aF3432.59
aaa(lp1629
g1628
aa(lp1630
g1628
aa(lp1631
g1628
aa(lp1632
g1081
aa(lp1633
g1523
aa(lp1634
g1523
aa(lp1635
g1523
aa(lp1636
g1085
aa(lp1637
g1085
aa(lp1638
g1085
aaa(lp1639
(lp1640
(lp1641
F2983.56
aF1460.41
aaa(lp1642
g1641
aa(lp1643
g1641
aa(lp1644
g1641
aa(lp1645
g1641
aa(lp1646
g1641
aa(lp1647
g1641
aa(lp1648
g1641
aa(lp1649
g1212
ag1213
aa(lp1650
g1543
aa(lp1651
g1543
aa(lp1652
g1543
aa(lp1653
g1543
aa(lp1654
g1548
aa(lp1655
g1548
aa(lp1656
g1548
aa(lp1657
g1444
aa(lp1658
g1444
aa(lp1659
g1444
aa(lp1660
g1444
aa(lp1661
g1444
aa(lp1662
g1340
aa(lp1663
g1340
aa(lp1664
g1340
aa(lp1665
g1340
aa(lp1666
g1340
aa(lp1667
g1346
aa(lp1668
g1346
aa(lp1669
g1346
aa(lp1670
g1346
aa(lp1671
g1346
aa(lp1672
g1241
aa(lp1673
g1241
aa(lp1674
g1241
aa(lp1675
g1241
aa(lp1676
g1241
aa(lp1677
g1130
aa(lp1678
g1130
aa(lp1679
g1132
aa(lp1680
g1132
aa(lp1681
g1136
aa(lp1682
g1136
aa(lp1683
g1136
aa(lp1684
g1136
aa(lp1685
g1031
aa(lp1686
g1031
aa(lp1687
g1031
aa(lp1688
(lp1689
F3058.25
aF2425.77
aaa(lp1690
g1689
aa(lp1691
g1586
aa(lp1692
g1586
aa(lp1693
g1586
aa(lp1694
g1586
aa(lp1695
g1586
aa(lp1696
g1592
aa(lp1697
g1592
aa(lp1698
g1592
aa(lp1699
g1592
aa(lp1700
g1486
aa(lp1701
g1486
aa(lp1702
g1486
aa(lp1703
g1486
aa(lp1704
g1384
aa(lp1705
g1384
aa(lp1706
g1384
aa(lp1707
g1384
aa(lp1708
g1384
aa(lp1709
g1384
aa(lp1710
g1389
aa(lp1711
g1389
aa(lp1712
g1389
aa(lp1713
g1389
aa(lp1714
g1283
aa(lp1715
g1283
aa(lp1716
g1283
aa(lp1717
g1283
aa(lp1718
g1283
aa(lp1719
g1176
aa(lp1720
g1176
aa(lp1721
g1176
aa(lp1722
g1618
aa(lp1723
g1618
aa(lp1724
g1618
aa(lp1725
(lp1726
F3002.42
aF3252.04
aaa(lp1727
g1726
aa(lp1728
g1726
aa(lp1729
g1295
ag1296
aa(lp1730
g1295
ag1296
aa(lp1731
g1300
ag1301
aa(lp1732
g1303
aa(lp1733
g1628
aa(lp1734
g1628
aa(lp1735
(lp1736
F2995.05
aF3442.93
aaa(lp1737
g1736
aa(lp1738
g1736
aa(lp1739
g1523
aa(lp1740
g1523
aa(lp1741
g1523
aa(lp1742
g1523
aa(lp1743
g1523
aa(lp1744
g1523
aaa(lp1745
(lp1746
(lp1747
F3077.8
aF1381.04
aaa(lp1748
(lp1749
F3009.92
aF1473.23
aaa(lp1750
g1749
aa(lp1751
g1749
aa(lp1752
g1749
aa(lp1753
(lp1754
F3007.72
aF1488.32
aaa(lp1755
g1754
aa(lp1756
g1754
aa(lp1757
g1754
aa(lp1758
g1543
aa(lp1759
g1543
aa(lp1760
g1543
aa(lp1761
g1543
aa(lp1762
g1548
aa(lp1763
g1548
aa(lp1764
g1548
aa(lp1765
g1444
aa(lp1766
g1444
aa(lp1767
g1444
aa(lp1768
g1444
aa(lp1769
g1444
aa(lp1770
g1444
aa(lp1771
g1340
aa(lp1772
g1340
aa(lp1773
g1340
aa(lp1774
g1340
aa(lp1775
g1346
aa(lp1776
g1346
aa(lp1777
g1346
aa(lp1778
g1346
aa(lp1779
g1346
aa(lp1780
g1241
aa(lp1781
g1241
aa(lp1782
g1241
aa(lp1783
g1241
aa(lp1784
g1241
aa(lp1785
g1130
aa(lp1786
g1130
aa(lp1787
g1132
aa(lp1788
g1132
aa(lp1789
g1136
aa(lp1790
g1136
aa(lp1791
g1136
aa(lp1792
g1136
aa(lp1793
g1689
aa(lp1794
g1689
aa(lp1795
g1689
aa(lp1796
g1689
aa(lp1797
g1689
aa(lp1798
g1586
aa(lp1799
g1586
aa(lp1800
g1586
aa(lp1801
g1586
aa(lp1802
g1586
aa(lp1803
g1592
aa(lp1804
g1592
aa(lp1805
g1592
aa(lp1806
g1592
aa(lp1807
g1486
aa(lp1808
g1486
aa(lp1809
g1486
aa(lp1810
g1486
aa(lp1811
g1486
aa(lp1812
g1384
aa(lp1813
g1384
aa(lp1814
g1384
aa(lp1815
g1384
aa(lp1816
g1384
aa(lp1817
g1389
aa(lp1818
g1389
aa(lp1819
g1389
aa(lp1820
g1389
aa(lp1821
g1283
aa(lp1822
g1283
aa(lp1823
g1283
aa(lp1824
g1283
aa(lp1825
g1283
aa(lp1826
g1618
aa(lp1827
g1618
aa(lp1828
g1618
aa(lp1829
g1618
aa(lp1830
g1618
aa(lp1831
g1618
aa(lp1832
g1726
aa(lp1833
g1726
aa(lp1834
g1726
aa(lp1835
g1726
aa(lp1836
(lp1837
F3058.1
aF3354.18
aaa(lp1838
g1837
aa(lp1839
(lp1840
F3054.56
aF3376.55
aaa(lp1841
(lp1842
F3008.84
aF3452.82
aaa(lp1843
g1842
aa(lp1844
g1842
aa(lp1845
g1842
aa(lp1846
g1842
aa(lp1847
g1523
aa(lp1848
g1523
aa(lp1849
g1523
aa(lp1850
(lp1851
F3027.84
aF3576.82
aaa(lp1852
g1851
aa(lp1853
g1851
aaa(lp1854
(lp1855
g1747
aa(lp1856
(lp1857
F3069.67
aF1429.36
aaa(lp1858
g1857
aa(lp1859
g1749
aa(lp1860
g1749
aa(lp1861
(lp1862
F3026.53
aF1480.78
aa(lp1863
F3043.92
aF1485.31
aaa(lp1864
(lp1865
F3037.86
aF1500.39
aaa(lp1866
g1865
aa(lp1867
g1865
aa(lp1868
g1543
aa(lp1869
g1543
aa(lp1870
g1543
aa(lp1871
g1543
aa(lp1872
g1548
aa(lp1873
g1548
aa(lp1874
g1548
aa(lp1875
g1548
aa(lp1876
g1444
aa(lp1877
g1444
aa(lp1878
g1444
aa(lp1879
g1444
aa(lp1880
g1444
aa(lp1881
g1340
aa(lp1882
g1340
aa(lp1883
g1340
aa(lp1884
g1340
aa(lp1885
g1346
aa(lp1886
g1346
aa(lp1887
g1346
aa(lp1888
g1346
aa(lp1889
g1346
aa(lp1890
(lp1891
F3113.39
aF2081.46
aaa(lp1892
g1241
aa(lp1893
g1241
aa(lp1894
(lp1895
F3105.11
aF2132.61
aaa(lp1896
g1895
aa(lp1897
(lp1898
F3089.26
aF2229.67
aaa(lp1899
g1898
aa(lp1900
g1898
aa(lp1901
g1898
aa(lp1902
g1898
aa(lp1903
g1136
aa(lp1904
g1136
aa(lp1905
g1689
aa(lp1906
g1689
aa(lp1907
g1689
aa(lp1908
g1689
aa(lp1909
g1689
aa(lp1910
g1689
aa(lp1911
g1586
aa(lp1912
g1586
aa(lp1913
g1586
aa(lp1914
g1586
aa(lp1915
g1586
aa(lp1916
g1592
aa(lp1917
g1592
aa(lp1918
g1592
aa(lp1919
g1592
aa(lp1920
g1592
aa(lp1921
g1486
aa(lp1922
g1486
aa(lp1923
g1486
aa(lp1924
g1486
aa(lp1925
g1384
aa(lp1926
g1384
aa(lp1927
g1384
aa(lp1928
g1384
aa(lp1929
g1384
aa(lp1930
g1389
aa(lp1931
g1389
aa(lp1932
g1389
aa(lp1933
g1389
aa(lp1934
g1283
aa(lp1935
g1283
aa(lp1936
g1283
aa(lp1937
(lp1938
F3104.14
aF3065.42
aaa(lp1939
g1938
aa(lp1940
(lp1941
F3095.86
aF3117.35
aaa(lp1942
g1618
aa(lp1943
g1618
aa(lp1944
g1618
aa(lp1945
g1618
aa(lp1946
g1618
aa(lp1947
g1726
aa(lp1948
g1726
aa(lp1949
g1726
aa(lp1950
g1837
aa(lp1951
g1837
aa(lp1952
g1837
aa(lp1953
g1840
aa(lp1954
g1840
aa(lp1955
g1842
aa(lp1956
g1842
aa(lp1957
(lp1958
F3027.29
aF3468.17
aa(lp1959
F3045.03
aF3476.84
aaa(lp1960
g1958
ag1959
aa(lp1961
g1958
ag1959
aa(lp1962
g1523
aa(lp1963
g1851
aa(lp1964
g1851
aa(lp1965
g1851
aa(lp1966
g1851
aaa(lp1967
(lp1968
g1747
aa(lp1969
g1857
aa(lp1970
g1857
aa(lp1971
g1857
aa(lp1972
(lp1973
F3059.74
aF1488.32
aaa(lp1974
g1973
aa(lp1975
(lp1976
F3056.75
aF1505.67
aaa(lp1977
g1976
aa(lp1978
g1976
aa(lp1979
g1543
aa(lp1980
g1543
aa(lp1981
g1543
aa(lp1982
g1543
aa(lp1983
g1548
aa(lp1984
g1548
aa(lp1985
g1548
aa(lp1986
g1548
aa(lp1987
g1444
aa(lp1988
g1444
aa(lp1989
g1444
aa(lp1990
g1444
aa(lp1991
g1444
aa(lp1992
g1340
aa(lp1993
g1340
aa(lp1994
(lp1995
F3138.93
aF1922.56
aaa(lp1996
g1995
aa(lp1997
g1346
aa(lp1998
g1346
aa(lp1999
g1346
aa(lp2000
(lp2001
F3121.84
aF2028.75
aaa(lp2002
g1891
aa(lp2003
g1891
aa(lp2004
g1891
aa(lp2005
g1895
aa(lp2006
g1895
aa(lp2007
g1895
aa(lp2008
g1898
aa(lp2009
g1898
aa(lp2010
g1898
aa(lp2011
g1898
aa(lp2012
g1898
aa(lp2013
g1898
aa(lp2014
g1689
aa(lp2015
g1689
aa(lp2016
g1689
aa(lp2017
g1689
aa(lp2018
g1689
aa(lp2019
g1689
aa(lp2020
g1689
aa(lp2021
g1689
aa(lp2022
g1586
aa(lp2023
g1586
aa(lp2024
g1586
aa(lp2025
g1586
aa(lp2026
g1592
aa(lp2027
g1592
aa(lp2028
g1592
aa(lp2029
g1592
aa(lp2030
g1592
aa(lp2031
g1486
aa(lp2032
g1486
aa(lp2033
g1486
aa(lp2034
g1486
aa(lp2035
g1384
aa(lp2036
g1384
aa(lp2037
g1384
aa(lp2038
(lp2039
F3137.26
aF2858.38
aaa(lp2040
g2039
aa(lp2041
g1389
aa(lp2042
g1389
aa(lp2043
g1389
aa(lp2044
(lp2045
F3120.7
aF2961.79
aaa(lp2046
g2045
aa(lp2047
g1938
aa(lp2048
g1938
aa(lp2049
g1938
aa(lp2050
g1938
aa(lp2051
g1941
aa(lp2052
(lp2053
F3087.58
aF3168.94
aaa(lp2054
g2053
aa(lp2055
g2053
aa(lp2056
g1618
aa(lp2057
(lp2058
F3079.22
aF3220.87
aa(lp2059
F3080.71
aF3211.53
aaa(lp2060
(lp2061
F3075.17
aF3246.31
aaa(lp2062
(lp2063
F3070.85
aF3273.66
aa(lp2064
F3072.37
aF3263.85
aa(lp2065
F3072.44
aF3263.4
aaa(lp2066
g2063
ag2064
ag2065
aa(lp2067
g1837
aa(lp2068
g1837
aa(lp2069
g1837
aa(lp2070
g1840
aa(lp2071
g1840
aa(lp2072
g1840
aa(lp2073
g1842
aa(lp2074
g1958
ag1959
aa(lp2075
(lp2076
F3090.45
aF3483.96
aaa(lp2077
g2076
aa(lp2078
(lp2079
F3062.83
aF3580.25
aaa(lp2080
g2079
aa(lp2081
g2079
aa(lp2082
g2079
aa(lp2083
g2079
aaa(lp2084
(lp2085
g1747
aa(lp2086
g1747
aa(lp2087
g1857
aa(lp2088
g1857
aa(lp2089
(lp2090
F3073.28
aF1490.59
aaa(lp2091
g2090
aa(lp2092
(lp2093
F3072.57
aF1508.69
aaa(lp2094
g2093
aa(lp2095
g2093
aa(lp2096
g1543
aa(lp2097
g1543
aa(lp2098
g1543
aa(lp2099
g1543
aa(lp2100
g1548
aa(lp2101
g1548
aa(lp2102
g1548
aa(lp2103
g1548
aa(lp2104
g1444
aa(lp2105
g1444
aa(lp2106
g1444
aa(lp2107
(lp2108
F3155.49
aF1818.93
aaa(lp2109
g2108
aa(lp2110
g1995
aa(lp2111
g1995
aa(lp2112
g1995
aa(lp2113
g1995
aa(lp2114
g1995
aa(lp2115
g2001
aa(lp2116
g2001
aa(lp2117
g2001
aa(lp2118
g1891
aa(lp2119
g1891
aa(lp2120
g1891
aa(lp2121
g1895
aa(lp2122
g1895
aa(lp2123
g1895
aa(lp2124
g1898
aa(lp2125
g1898
aa(lp2126
g1898
aa(lp2127
g1898
aa(lp2128
g1898
aa(lp2129
g1898
aa(lp2130
g1898
aa(lp2131
g1689
aa(lp2132
g1689
aa(lp2133
g1689
aa(lp2134
g1689
aa(lp2135
g1689
aa(lp2136
g1689
aa(lp2137
g1689
aa(lp2138
g1586
aa(lp2139
g1586
aa(lp2140
g1586
aa(lp2141
g1586
aa(lp2142
g1592
aa(lp2143
g1592
aa(lp2144
g1592
aa(lp2145
g1592
aa(lp2146
g1592
aa(lp2147
g1486
aa(lp2148
g1486
aa(lp2149
(lp2150
F3153.9
aF2754.63
aaa(lp2151
g2150
aa(lp2152
g2039
aa(lp2153
g2039
aa(lp2154
g2039
aa(lp2155
g2039
aa(lp2156
g2039
aa(lp2157
g2039
aa(lp2158
g1389
aa(lp2159
g2045
aa(lp2160
g2045
aa(lp2161
g2045
aa(lp2162
g1938
aa(lp2163
g1938
aa(lp2164
g1938
aa(lp2165
g1938
aa(lp2166
g1941
aa(lp2167
g2053
aa(lp2168
g2053
aa(lp2169
g2053
aa(lp2170
g2053
aa(lp2171
g2058
ag2059
aa(lp2172
g2061
aa(lp2173
g2063
ag2064
ag2065
aa(lp2174
g2063
ag2064
ag2065
aa(lp2175
g2063
ag2064
ag2065
aa(lp2176
g1837
aa(lp2177
g1837
aa(lp2178
g1840
aa(lp2179
(lp2180
F3103.14
aF3404.66
aaa(lp2181
g2180
aa(lp2182
g2076
aa(lp2183
g2076
aa(lp2184
g2076
aa(lp2185
g2076
aa(lp2186
(lp2187
F3074.52
aF3566.8
aa(lp2188
F3080.24
aF3552.57
aaa(lp2189
g2187
ag2188
aa(lp2190
g2079
aa(lp2191
g2079
aa(lp2192
g2079
aaa(lp2193
(lp2194
g1747
aa(lp2195
g1747
aa(lp2196
g1857
aa(lp2197
g1857
aa(lp2198
g2090
aa(lp2199
g2090
aa(lp2200
g2093
aa(lp2201
g2093
aa(lp2202
g2093
aa(lp2203
g1543
aa(lp2204
g1543
aa(lp2205
(lp2206
F3188.88
aF1611.55
aaa(lp2207
g2206
aa(lp2208
g1548
aa(lp2209
g1548
aa(lp2210
(lp2211
F3172.23
aF1715.18
aaa(lp2212
g2211
aa(lp2213
g2108
aa(lp2214
g2108
aa(lp2215
g2108
aa(lp2216
g2108
aa(lp2217
g2108
aa(lp2218
g1995
aa(lp2219
g1995
aa(lp2220
g1995
aa(lp2221
g1995
aa(lp2222
g1995
aa(lp2223
g2001
aa(lp2224
g2001
aa(lp2225
g2001
aa(lp2226
g1891
aa(lp2227
g1891
aa(lp2228
g1891
aa(lp2229
g1895
aa(lp2230
g1895
aa(lp2231
g1895
aa(lp2232
g1895
aa(lp2233
g1898
aa(lp2234
g1898
aa(lp2235
g1898
aa(lp2236
g1898
aa(lp2237
g1898
aa(lp2238
g1898
aa(lp2239
(lp2240
F3218.64
aF2350.66
aaa(lp2241
g1689
aa(lp2242
g1689
aa(lp2243
g1689
aa(lp2244
g1689
aa(lp2245
g1689
aa(lp2246
g1689
aa(lp2247
g1586
aa(lp2248
g1586
aa(lp2249
(lp2250
F3187.37
aF2545.7
aaa(lp2251
g2250
aa(lp2252
g1592
aa(lp2253
g1592
aa(lp2254
g1592
aa(lp2255
(lp2256
F3170.46
aF2648.26
aaa(lp2257
g2256
aa(lp2258
g2150
aa(lp2259
g2150
aa(lp2260
g2150
aa(lp2261
g2150
aa(lp2262
g2039
aa(lp2263
g2039
aa(lp2264
g2039
aa(lp2265
g2039
aa(lp2266
g2039
aa(lp2267
g2039
aa(lp2268
g2045
aa(lp2269
g2045
aa(lp2270
g2045
aa(lp2271
g2045
aa(lp2272
g1938
aa(lp2273
g1938
aa(lp2274
g1938
aa(lp2275
g1938
aa(lp2276
g1941
aa(lp2277
g1941
aa(lp2278
g2053
aa(lp2279
g2053
aa(lp2280
g2053
aa(lp2281
g2058
ag2059
aa(lp2282
(lp2283
F3117.43
aF3253.3
aaa(lp2284
(lp2285
F3114.7
aF3270.29
aaa(lp2286
g2285
aa(lp2287
g2285
aa(lp2288
(lp2289
F3106.3
aF3384.88
aa(lp2290
F3117.37
aF3386.65
aaa(lp2291
g2289
ag2290
aa(lp2292
g2289
ag2290
aa(lp2293
g2180
aa(lp2294
g2180
aa(lp2295
g2180
aa(lp2296
g2076
aa(lp2297
g2076
aa(lp2298
g2076
aa(lp2299
g2187
ag2188
aa(lp2300
g2187
ag2188
aa(lp2301
g2079
aa(lp2302
g2079
aa(lp2303
g2079
aaa(lp2304
(lp2305
g1747
aa(lp2306
g1747
aa(lp2307
g1857
aa(lp2308
g1857
aa(lp2309
g2090
aa(lp2310
g2090
aa(lp2311
g2093
aa(lp2312
g2093
aa(lp2313
g2093
aa(lp2314
g2206
aa(lp2315
g2206
aa(lp2316
g2206
aa(lp2317
g2206
aa(lp2318
g2206
aa(lp2319
g2211
aa(lp2320
g2211
aa(lp2321
g2211
aa(lp2322
g2108
aa(lp2323
g2108
aa(lp2324
g2108
aa(lp2325
g2108
aa(lp2326
g2108
aa(lp2327
g1995
aa(lp2328
g1995
aa(lp2329
g1995
aa(lp2330
g1995
aa(lp2331
g1995
aa(lp2332
g2001
aa(lp2333
g2001
aa(lp2334
g2001
aa(lp2335
g2001
aa(lp2336
g1891
aa(lp2337
g1891
aa(lp2338
g1895
aa(lp2339
g1895
aa(lp2340
g1895
aa(lp2341
g1895
aa(lp2342
g1898
aa(lp2343
g1898
aa(lp2344
g1898
aa(lp2345
g1898
aa(lp2346
g1898
aa(lp2347
g2240
aa(lp2348
g2240
aa(lp2349
g2240
aa(lp2350
g1689
aa(lp2351
g1689
aa(lp2352
g1689
aa(lp2353
(lp2354
F3202.26
aF2448.39
aaa(lp2355
g2354
aa(lp2356
g2250
aa(lp2357
g2250
aa(lp2358
g2250
aa(lp2359
g2250
aa(lp2360
g2250
aa(lp2361
g2256
aa(lp2362
g2256
aa(lp2363
g2256
aa(lp2364
g2256
aa(lp2365
g2150
aa(lp2366
g2150
aa(lp2367
g2150
aa(lp2368
g2150
aa(lp2369
g2039
aa(lp2370
g2039
aa(lp2371
g2039
aa(lp2372
g2039
aa(lp2373
g2039
aa(lp2374
g2039
aa(lp2375
g2045
aa(lp2376
g2045
aa(lp2377
g2045
aa(lp2378
g2045
aa(lp2379
g2045
aa(lp2380
g1938
aa(lp2381
g1938
aa(lp2382
g1938
aa(lp2383
g1941
aa(lp2384
g1941
aa(lp2385
g2053
aa(lp2386
g2053
aa(lp2387
(lp2388
F3121.39
aF3227.68
aaa(lp2389
g2388
aa(lp2390
g2283
aa(lp2391
g2285
aa(lp2392
g2285
aa(lp2393
g2285
aa(lp2394
g2289
ag2290
aa(lp2395
g2289
ag2290
aa(lp2396
g2289
ag2290
aa(lp2397
(lp2398
F3142.24
aF3390.64
aaa(lp2399
g2398
aa(lp2400
g2398
aa(lp2401
g2076
aa(lp2402
g2076
aa(lp2403
g2076
aa(lp2404
g2187
ag2188
aa(lp2405
g2187
ag2188
aa(lp2406
(lp2407
F3155.18
aF3581.58
aaa(lp2408
g2407
aa(lp2409
g2407
aaa(lp2410
(lp2411
g1747
aa(lp2412
g1747
aa(lp2413
g1857
aa(lp2414
g1857
aa(lp2415
g2090
aa(lp2416
g2090
aa(lp2417
g2093
aa(lp2418
g2093
aa(lp2419
g2206
aa(lp2420
g2206
aa(lp2421
g2206
aa(lp2422
g2206
aa(lp2423
g2206
aa(lp2424
g2206
aa(lp2425
g2211
aa(lp2426
g2211
aa(lp2427
g2211
aa(lp2428
g2108
aa(lp2429
g2108
aa(lp2430
g2108
aa(lp2431
g2108
aa(lp2432
g2108
aa(lp2433
g2108
aa(lp2434
g1995
aa(lp2435
g1995
aa(lp2436
g1995
aa(lp2437
g1995
aa(lp2438
g2001
aa(lp2439
g2001
aa(lp2440
g2001
aa(lp2441
g2001
aa(lp2442
g1891
aa(lp2443
g1891
aa(lp2444
g1895
aa(lp2445
g1895
aa(lp2446
g1895
aa(lp2447
g1895
aa(lp2448
g1898
aa(lp2449
g1898
aa(lp2450
(lp2451
F3234.24
aF2252.7
aaa(lp2452
(lp2453
F3230.62
aF2275.23
aaa(lp2454
g2453
aa(lp2455
g2240
aa(lp2456
g2240
aa(lp2457
g2240
aa(lp2458
g2354
aa(lp2459
g2354
aa(lp2460
g2354
aa(lp2461
g2354
aa(lp2462
g2354
aa(lp2463
g2250
aa(lp2464
g2250
aa(lp2465
g2250
aa(lp2466
g2250
aa(lp2467
g2250
aa(lp2468
g2256
aa(lp2469
g2256
aa(lp2470
g2256
aa(lp2471
g2256
aa(lp2472
g2150
aa(lp2473
g2150
aa(lp2474
g2150
aa(lp2475
g2150
aa(lp2476
g2150
aa(lp2477
g2039
aa(lp2478
g2039
aa(lp2479
g2039
aa(lp2480
g2039
aa(lp2481
g2039
aa(lp2482
g2045
aa(lp2483
g2045
aa(lp2484
g2045
aa(lp2485
g2045
aa(lp2486
g2045
aa(lp2487
g1938
aa(lp2488
g1938
aa(lp2489
g1938
aa(lp2490
g1941
aa(lp2491
g1941
aa(lp2492
g2053
aa(lp2493
g2053
aa(lp2494
g2388
aa(lp2495
g2388
aa(lp2496
g2283
aa(lp2497
g2285
aa(lp2498
(lp2499
F3214.93
aF3297.1
aaa(lp2500
g2499
aa(lp2501
g2289
ag2290
aa(lp2502
g2289
ag2290
aa(lp2503
g2289
ag2290
aa(lp2504
g2398
aa(lp2505
(lp2506
F3179.21
aF3425.07
aaa(lp2507
g2506
aa(lp2508
g2506
aa(lp2509
g2076
aa(lp2510
g2407
aa(lp2511
g2407
aa(lp2512
g2407
aa(lp2513
g2407
aa(lp2514
g2407
aa(lp2515
g2407
aaa(lp2516
(lp2517
g1747
aa(lp2518
g1747
aa(lp2519
g1857
aa(lp2520
g1857
aa(lp2521
g2090
aa(lp2522
g2090
aa(lp2523
g2093
aa(lp2524
g2206
aa(lp2525
g2206
aa(lp2526
g2206
aa(lp2527
g2206
aa(lp2528
g2206
aa(lp2529
g2206
aa(lp2530
g2206
aa(lp2531
g2211
aa(lp2532
g2211
aa(lp2533
g2211
aa(lp2534
g2211
aa(lp2535
g2108
aa(lp2536
g2108
aa(lp2537
g2108
aa(lp2538
g2108
aa(lp2539
g2108
aa(lp2540
g1995
aa(lp2541
g1995
aa(lp2542
g1995
aa(lp2543
g1995
aa(lp2544
g2001
aa(lp2545
g2001
aa(lp2546
g2001
aa(lp2547
g2001
aa(lp2548
g1891
aa(lp2549
(lp2550
F3257.84
aF2104.81
aaa(lp2551
g1895
aa(lp2552
g1895
aa(lp2553
(lp2554
F3249.74
aF2155.62
aaa(lp2555
g2554
aa(lp2556
g2451
aa(lp2557
g2451
aa(lp2558
g2451
aa(lp2559
g2453
aa(lp2560
g2453
aa(lp2561
g2240
aa(lp2562
g2240
aa(lp2563
g2240
aa(lp2564
g2354
aa(lp2565
g2354
aa(lp2566
g2354
aa(lp2567
g2354
aa(lp2568
g2354
aa(lp2569
g2250
aa(lp2570
g2250
aa(lp2571
g2250
aa(lp2572
g2250
aa(lp2573
g2250
aa(lp2574
g2256
aa(lp2575
g2256
aa(lp2576
g2256
aa(lp2577
g2256
aa(lp2578
g2256
aa(lp2579
g2150
aa(lp2580
g2150
aa(lp2581
g2150
aa(lp2582
g2150
aa(lp2583
g2039
aa(lp2584
g2039
aa(lp2585
g2039
aa(lp2586
g2039
aa(lp2587
g2039
aa(lp2588
g2045
aa(lp2589
g2045
aa(lp2590
g2045
aa(lp2591
g2045
aa(lp2592
g2045
aa(lp2593
g1938
aa(lp2594
g1938
aa(lp2595
(lp2596
F3248.93
aF3088.77
aaa(lp2597
g1941
aa(lp2598
(lp2599
F3240.65
aF3140.59
aaa(lp2600
(lp2601
F3232.37
aF3192.3
aaa(lp2602
g2601
aa(lp2603
g2601
aa(lp2604
g2388
aa(lp2605
(lp2606
F3224.01
aF3244.22
aaa(lp2607
g2499
aa(lp2608
g2499
aa(lp2609
g2499
aa(lp2610
(lp2611
F3186.4
aF3397.73
aa(lp2612
F3187.04
aF3408.35
aaa(lp2613
g2611
ag2612
aa(lp2614
g2611
ag2612
aa(lp2615
g2611
ag2612
aa(lp2616
g2506
aa(lp2617
g2506
aa(lp2618
g2506
aa(lp2619
g2506
aa(lp2620
(lp2621
F3171.21
aF3577.9
aaa(lp2622
g2621
aa(lp2623
g2621
aa(lp2624
g2621
aa(lp2625
g2621
aa(lp2626
g2621
aaa(lp2627
(lp2628
g1747
aa(lp2629
g1747
aa(lp2630
g1857
aa(lp2631
g1857
aa(lp2632
g2090
aa(lp2633
g2090
aa(lp2634
(lp2635
F3276.96
aF1541.87
aaa(lp2636
g2635
aa(lp2637
g2206
aa(lp2638
g2206
aa(lp2639
g2206
aa(lp2640
g2206
aa(lp2641
g2206
aa(lp2642
g2206
aa(lp2643
g2211
aa(lp2644
g2211
aa(lp2645
g2211
aa(lp2646
g2211
aa(lp2647
g2108
aa(lp2648
g2108
aa(lp2649
g2108
aa(lp2650
g2108
aa(lp2651
g2108
aa(lp2652
g1995
aa(lp2653
g1995
aa(lp2654
(lp2655
F3283.22
aF1945.69
aaa(lp2656
g2655
aa(lp2657
g2001
aa(lp2658
g2001
aa(lp2659
g2001
aa(lp2660
(lp2661
F3266.21
aF2051.99
aaa(lp2662
g2550
aa(lp2663
g2550
aa(lp2664
g2550
aa(lp2665
g2554
aa(lp2666
g2554
aa(lp2667
g2554
aa(lp2668
g2451
aa(lp2669
g2451
aa(lp2670
g2451
aa(lp2671
g2453
aa(lp2672
g2453
aa(lp2673
g2240
aa(lp2674
g2240
aa(lp2675
g2240
aa(lp2676
g2354
aa(lp2677
g2354
aa(lp2678
g2354
aa(lp2679
g2354
aa(lp2680
g2354
aa(lp2681
g2354
aa(lp2682
g2250
aa(lp2683
g2250
aa(lp2684
g2250
aa(lp2685
g2250
aa(lp2686
g2256
aa(lp2687
g2256
aa(lp2688
g2256
aa(lp2689
g2256
aa(lp2690
g2256
aa(lp2691
g2150
aa(lp2692
g2150
aa(lp2693
g2150
aa(lp2694
g2150
aa(lp2695
g2039
aa(lp2696
g2039
aa(lp2697
g2039
aa(lp2698
(lp2699
F3282.05
aF2881.62
aaa(lp2700
g2699
aa(lp2701
g2045
aa(lp2702
g2045
aa(lp2703
g2045
aa(lp2704
(lp2705
F3265.49
aF2985.14
aaa(lp2706
g2705
aa(lp2707
g2596
aa(lp2708
g2596
aa(lp2709
g2596
aa(lp2710
g2596
aa(lp2711
g2599
aa(lp2712
g2601
aa(lp2713
g2601
aa(lp2714
g2601
aa(lp2715
g2601
aa(lp2716
g2606
aa(lp2717
g2499
aa(lp2718
g2499
aa(lp2719
g2499
aa(lp2720
g2499
aa(lp2721
(lp2722
F3200.75
aF3389.11
aaa(lp2723
g2722
aa(lp2724
(lp2725
F3196.44
aF3399.34
aaa(lp2726
(lp2727
F3197.84
aF3413.47
aaa(lp2728
g2727
aa(lp2729
g2727
aa(lp2730
g2727
aa(lp2731
g2621
aa(lp2732
g2621
aa(lp2733
g2621
aa(lp2734
g2621
aa(lp2735
g2621
aa(lp2736
g2621
aaa(lp2737
(lp2738
g1747
aa(lp2739
g1747
aa(lp2740
(lp2741
F3366.29
aF1427.74
aaa(lp2742
g2635
aa(lp2743
g2635
aa(lp2744
g2635
aa(lp2745
g2635
aa(lp2746
g2635
aa(lp2747
g2635
aa(lp2748
g2206
aa(lp2749
g2206
aa(lp2750
g2206
aa(lp2751
g2206
aa(lp2752
g2206
aa(lp2753
g2211
aa(lp2754
g2211
aa(lp2755
g2211
aa(lp2756
g2211
aa(lp2757
g2108
aa(lp2758
g2108
aa(lp2759
g2108
aa(lp2760
(lp2761
F3299.69
aF1842.28
aaa(lp2762
g2761
aa(lp2763
(lp2764
F3291.5
aF1893.87
aaa(lp2765
g2655
aa(lp2766
g2655
aa(lp2767
g2655
aa(lp2768
g2655
aa(lp2769
g2661
aa(lp2770
g2661
aa(lp2771
g2661
aa(lp2772
g2550
aa(lp2773
g2550
aa(lp2774
g2550
aa(lp2775
g2554
aa(lp2776
g2554
aa(lp2777
g2554
aa(lp2778
g2451
aa(lp2779
g2451
aa(lp2780
g2451
aa(lp2781
g2453
aa(lp2782
g2453
aa(lp2783
g2240
aa(lp2784
g2240
aa(lp2785
g2240
aa(lp2786
g2240
aa(lp2787
g2354
aa(lp2788
g2354
aa(lp2789
g2354
aa(lp2790
g2354
aa(lp2791
g2354
aa(lp2792
g2250
aa(lp2793
g2250
aa(lp2794
g2250
aa(lp2795
g2250
aa(lp2796
g2256
aa(lp2797
g2256
aa(lp2798
g2256
aa(lp2799
g2256
aa(lp2800
g2256
aa(lp2801
g2150
aa(lp2802
g2150
aa(lp2803
(lp2804
F3298.7
aF2777.98
aaa(lp2805
g2804
aa(lp2806
g2699
aa(lp2807
g2699
aa(lp2808
g2699
aa(lp2809
g2699
aa(lp2810
g2699
aa(lp2811
g2699
aa(lp2812
g2705
aa(lp2813
g2705
aa(lp2814
g2705
aa(lp2815
g2705
aa(lp2816
g2596
aa(lp2817
g2596
aa(lp2818
g2596
aa(lp2819
g2596
aa(lp2820
g2599
aa(lp2821
g2601
aa(lp2822
g2601
aa(lp2823
g2601
aa(lp2824
g2601
aa(lp2825
g2606
aa(lp2826
g2606
aa(lp2827
(lp2828
F3216.39
aF3288.17
aa(lp2829
F3216.61
aF3286.86
aaa(lp2830
g2828
ag2829
aa(lp2831
g2828
ag2829
aa(lp2832
g2722
aa(lp2833
g2722
aa(lp2834
g2725
aa(lp2835
g2727
aa(lp2836
g2727
aa(lp2837
g2727
aa(lp2838
g2727
aa(lp2839
g2621
aa(lp2840
g2621
aa(lp2841
g2621
aa(lp2842
g2621
aa(lp2843
g2621
aa(lp2844
g2621
aaa(lp2845
(lp2846
g1747
aa(lp2847
g2741
aa(lp2848
g2741
aa(lp2849
g2635
aa(lp2850
g2635
aa(lp2851
g2635
aa(lp2852
g2635
aa(lp2853
g2635
aa(lp2854
g2635
aa(lp2855
g2635
aa(lp2856
g2206
aa(lp2857
g2206
aa(lp2858
(lp2859
F3332.82
aF1634.68
aaa(lp2860
g2859
aa(lp2861
g2211
aa(lp2862
g2211
aa(lp2863
(lp2864
F3316.25
aF1738.31
aaa(lp2865
g2864
aa(lp2866
g2761
aa(lp2867
g2761
aa(lp2868
g2761
aa(lp2869
g2761
aa(lp2870
g2761
aa(lp2871
g2764
aa(lp2872
g2655
aa(lp2873
g2655
aa(lp2874
g2655
aa(lp2875
g2655
aa(lp2876
g2661
aa(lp2877
g2661
aa(lp2878
g2661
aa(lp2879
g2550
aa(lp2880
g2550
aa(lp2881
g2550
aa(lp2882
g2554
aa(lp2883
g2554
aa(lp2884
g2554
aa(lp2885
g2554
aa(lp2886
g2451
aa(lp2887
g2451
aa(lp2888
g2453
aa(lp2889
g2453
aa(lp2890
g2240
aa(lp2891
g2240
aa(lp2892
g2240
aa(lp2893
g2240
aa(lp2894
g2354
aa(lp2895
g2354
aa(lp2896
g2354
aa(lp2897
g2354
aa(lp2898
g2354
aa(lp2899
g2250
aa(lp2900
g2250
aa(lp2901
(lp2902
F3332.09
aF2569.05
aaa(lp2903
g2902
aa(lp2904
g2256
aa(lp2905
g2256
aa(lp2906
g2256
aa(lp2907
(lp2908
F3315.79
aF2672.15
aaa(lp2909
g2908
aa(lp2910
g2804
aa(lp2911
g2804
aa(lp2912
g2804
aa(lp2913
g2804
aa(lp2914
g2699
aa(lp2915
g2699
aa(lp2916
g2699
aa(lp2917
g2699
aa(lp2918
g2699
aa(lp2919
g2699
aa(lp2920
g2705
aa(lp2921
g2705
aa(lp2922
g2705
aa(lp2923
g2705
aa(lp2924
g2596
aa(lp2925
g2596
aa(lp2926
g2596
aa(lp2927
g2596
aa(lp2928
g2599
aa(lp2929
g2599
aa(lp2930
g2601
aa(lp2931
g2601
aa(lp2932
g2601
aa(lp2933
g2606
aa(lp2934
g2606
aa(lp2935
g2828
ag2829
aa(lp2936
g2828
ag2829
aa(lp2937
g2828
ag2829
aa(lp2938
g2722
aa(lp2939
g2722
aa(lp2940
g2725
aa(lp2941
g2727
aa(lp2942
g2727
aa(lp2943
g2727
aa(lp2944
g2727
aa(lp2945
g2621
aa(lp2946
g2621
aa(lp2947
g2621
aa(lp2948
g2621
aa(lp2949
(lp2950
F3325.07
aF3612.22
aaa(lp2951
g2950
aaa(lp2952
(lp2953
g2741
aa(lp2954
g2741
aa(lp2955
g2741
aa(lp2956
g2635
aa(lp2957
g2635
aa(lp2958
g2635
aa(lp2959
g2635
aa(lp2960
g2635
aa(lp2961
g2635
aa(lp2962
g2635
aa(lp2963
g2635
aa(lp2964
g2859
aa(lp2965
g2859
aa(lp2966
g2859
aa(lp2967
g2859
aa(lp2968
g2864
aa(lp2969
g2864
aa(lp2970
g2864
aa(lp2971
g2761
aa(lp2972
g2761
aa(lp2973
g2761
aa(lp2974
g2761
aa(lp2975
g2761
aa(lp2976
g2764
aa(lp2977
g2655
aa(lp2978
g2655
aa(lp2979
g2655
aa(lp2980
g2655
aa(lp2981
g2661
aa(lp2982
g2661
aa(lp2983
g2661
aa(lp2984
g2661
aa(lp2985
g2550
aa(lp2986
g2550
aa(lp2987
g2554
aa(lp2988
g2554
aa(lp2989
g2554
aa(lp2990
g2554
aa(lp2991
g2451
aa(lp2992
g2451
aa(lp2993
g2453
aa(lp2994
g2453
aa(lp2995
g2240
aa(lp2996
g2240
aa(lp2997
g2240
aa(lp2998
g2240
aa(lp2999
g2354
aa(lp3000
g2354
aa(lp3001
g2354
aa(lp3002
(lp3003
F3347.77
aF2471.97
aaa(lp3004
g3003
aa(lp3005
g2902
aa(lp3006
g2902
aa(lp3007
g2902
aa(lp3008
g2902
aa(lp3009
g2902
aa(lp3010
g2908
aa(lp3011
g2908
aa(lp3012
g2908
aa(lp3013
g2908
aa(lp3014
g2804
aa(lp3015
g2804
aa(lp3016
g2804
aa(lp3017
g2804
aa(lp3018
g2699
aa(lp3019
g2699
aa(lp3020
g2699
aa(lp3021
g2699
aa(lp3022
g2699
aa(lp3023
g2699
aa(lp3024
g2705
aa(lp3025
g2705
aa(lp3026
g2705
aa(lp3027
g2705
aa(lp3028
g2705
aa(lp3029
g2596
aa(lp3030
g2596
aa(lp3031
g2596
aa(lp3032
g2599
aa(lp3033
g2599
aa(lp3034
g2601
aa(lp3035
g2601
aa(lp3036
g2601
aa(lp3037
g2606
aa(lp3038
g2606
aa(lp3039
g2828
ag2829
aa(lp3040
g2828
ag2829
aa(lp3041
g2828
ag2829
aa(lp3042
g2722
aa(lp3043
g2722
aa(lp3044
g2725
aa(lp3045
g2727
aa(lp3046
g2727
aa(lp3047
g2727
aa(lp3048
g2727
aa(lp3049
g2950
aa(lp3050
g2950
aa(lp3051
g2950
aa(lp3052
g2950
aa(lp3053
g2950
aa(lp3054
g2950
aaa(lp3055
(lp3056
g2741
aa(lp3057
g2741
aa(lp3058
g2741
aa(lp3059
g2741
aa(lp3060
g2635
aa(lp3061
g2635
aa(lp3062
g2635
aa(lp3063
g2635
aa(lp3064
(lp3065
F3315.01
aF1548.1
aa(lp3066
F3333.71
aF1556.31
aa(lp3067
F3334.27
aF1551.39
aaa(lp3068
g3065
ag3066
ag3067
aa(lp3069
g3065
ag3066
ag3067
aa(lp3070
g2859
aa(lp3071
g2859
aa(lp3072
g2859
aa(lp3073
g2859
aa(lp3074
g2864
aa(lp3075
g2864
aa(lp3076
g2864
aa(lp3077
g2761
aa(lp3078
g2761
aa(lp3079
g2761
aa(lp3080
g2761
aa(lp3081
g2761
aa(lp3082
g2764
aa(lp3083
g2764
aa(lp3084
g2655
aa(lp3085
g2655
aa(lp3086
g2655
aa(lp3087
g2661
aa(lp3088
g2661
aa(lp3089
g2661
aa(lp3090
g2661
aa(lp3091
g2550
aa(lp3092
g2550
aa(lp3093
g2554
aa(lp3094
g2554
aa(lp3095
g2554
aa(lp3096
g2554
aa(lp3097
g2451
aa(lp3098
g2451
aa(lp3099
g2453
aa(lp3100
g2453
aa(lp3101
g2240
aa(lp3102
g2240
aa(lp3103
(lp3104
F3363.27
aF2373.9
aaa(lp3105
g3104
aa(lp3106
g3003
aa(lp3107
g3003
aa(lp3108
g3003
aa(lp3109
g3003
aa(lp3110
g3003
aa(lp3111
g2902
aa(lp3112
g2902
aa(lp3113
g2902
aa(lp3114
g2902
aa(lp3115
g2902
aa(lp3116
g2908
aa(lp3117
g2908
aa(lp3118
g2908
aa(lp3119
g2908
aa(lp3120
g2804
aa(lp3121
g2804
aa(lp3122
g2804
aa(lp3123
g2804
aa(lp3124
g2804
aa(lp3125
g2699
aa(lp3126
g2699
aa(lp3127
g2699
aa(lp3128
g2699
aa(lp3129
g2699
aa(lp3130
g2705
aa(lp3131
g2705
aa(lp3132
g2705
aa(lp3133
g2705
aa(lp3134
g2705
aa(lp3135
g2596
aa(lp3136
g2596
aa(lp3137
g2596
aa(lp3138
g2599
aa(lp3139
g2599
aa(lp3140
g2601
aa(lp3141
g2601
aa(lp3142
(lp3143
F3376.63
aF3215.53
aaa(lp3144
g2606
aa(lp3145
(lp3146
F3367.47
aF3268.0
aaa(lp3147
g2828
ag2829
aa(lp3148
(lp3149
F3358.49
aF3320.31
aa(lp3150
F3360.1
aF3312.43
aaa(lp3151
g3149
ag3150
aa(lp3152
(lp3153
F3351.62
aF3371.32
aaa(lp3154
g3153
aa(lp3155
g3153
aa(lp3156
(lp3157
F3343.34
aF3423.02
aaa(lp3158
g3157
aa(lp3159
g3157
aa(lp3160
g3157
aa(lp3161
g2950
aa(lp3162
g2950
aa(lp3163
g2950
aa(lp3164
g2950
aa(lp3165
g2950
aa(lp3166
g2950
aaa(lp3167
(lp3168
g2741
aa(lp3169
g2741
aa(lp3170
g2741
aa(lp3171
g2741
aa(lp3172
(lp3173
F3321.61
aF1531.92
aa(lp3174
F3335.77
aF1535.81
aa(lp3175
F3336.03
aF1531.81
aaa(lp3176
g3173
ag3174
ag3175
aa(lp3177
g3173
ag3174
ag3175
aa(lp3178
g3173
ag3174
ag3175
aa(lp3179
g3065
ag3066
ag3067
aa(lp3180
g3065
ag3066
ag3067
aa(lp3181
g3065
ag3066
ag3067
aa(lp3182
g2859
aa(lp3183
g2859
aa(lp3184
g2859
aa(lp3185
g2859
aa(lp3186
g2864
aa(lp3187
g2864
aa(lp3188
g2864
aa(lp3189
g2864
aa(lp3190
g2761
aa(lp3191
g2761
aa(lp3192
g2761
aa(lp3193
g2761
aa(lp3194
g2764
aa(lp3195
g2764
aa(lp3196
g2655
aa(lp3197
g2655
aa(lp3198
g2655
aa(lp3199
g2661
aa(lp3200
g2661
aa(lp3201
g2661
aa(lp3202
g2661
aa(lp3203
g2550
aa(lp3204
g2550
aa(lp3205
g2554
aa(lp3206
g2554
aa(lp3207
(lp3208
F3394.37
aF2178.75
aaa(lp3209
g3208
aa(lp3210
(lp3211
F3378.86
aF2275.94
aaa(lp3212
g3211
aa(lp3213
g3211
aa(lp3214
g3211
aa(lp3215
g3211
aa(lp3216
g3104
aa(lp3217
g3104
aa(lp3218
g3104
aa(lp3219
g3003
aa(lp3220
g3003
aa(lp3221
g3003
aa(lp3222
g3003
aa(lp3223
g3003
aa(lp3224
g2902
aa(lp3225
g2902
aa(lp3226
g2902
aa(lp3227
g2902
aa(lp3228
g2902
aa(lp3229
g2908
aa(lp3230
g2908
aa(lp3231
g2908
aa(lp3232
g2908
aa(lp3233
g2908
aa(lp3234
g2804
aa(lp3235
g2804
aa(lp3236
g2804
aa(lp3237
g2804
aa(lp3238
g2699
aa(lp3239
g2699
aa(lp3240
g2699
aa(lp3241
g2699
aa(lp3242
g2699
aa(lp3243
g2705
aa(lp3244
g2705
aa(lp3245
g2705
aa(lp3246
g2705
aa(lp3247
g2705
aa(lp3248
g2596
aa(lp3249
g2596
aa(lp3250
(lp3251
F3393.19
aF3112.01
aaa(lp3252
g2599
aa(lp3253
(lp3254
F3384.91
aF3163.83
aaa(lp3255
g3143
aa(lp3256
g3143
aa(lp3257
g3143
aa(lp3258
g3143
aa(lp3259
g3146
aa(lp3260
g3149
ag3150
aa(lp3261
g3149
ag3150
aa(lp3262
g3149
ag3150
aa(lp3263
g3153
aa(lp3264
g3153
aa(lp3265
g3153
aa(lp3266
g3157
aa(lp3267
g3157
aa(lp3268
g3157
aa(lp3269
g3157
aa(lp3270
g2950
aa(lp3271
g2950
aa(lp3272
g2950
aa(lp3273
g2950
aa(lp3274
g2950
aa(lp3275
g2950
aaa(lp3276
(lp3277
g2741
aa(lp3278
g2741
aa(lp3279
g2741
aa(lp3280
g2741
aa(lp3281
(lp3282
F3348.23
aF1539.23
aa(lp3283
F3349.2
aF1531.7
aa(lp3284
F3358.6
aF1541.5
aa(lp3285
F3360.45
aF1531.15
aaa(lp3286
g3282
ag3283
ag3284
ag3285
aa(lp3287
g3282
ag3283
ag3284
ag3285
aa(lp3288
g3282
ag3283
ag3284
ag3285
aa(lp3289
(lp3290
F3344.62
aF1561.1
aa(lp3291
F3344.8
aF1553.19
aaa(lp3292
(lp3293
F3354.02
aF1565.51
aaa(lp3294
g3293
aa(lp3295
g2859
aa(lp3296
g2859
aa(lp3297
g2859
aa(lp3298
g2859
aa(lp3299
g2864
aa(lp3300
g2864
aa(lp3301
g2864
aa(lp3302
g2864
aa(lp3303
g2761
aa(lp3304
g2761
aa(lp3305
g2761
aa(lp3306
g2761
aa(lp3307
g2764
aa(lp3308
g2764
aa(lp3309
g2655
aa(lp3310
(lp3311
F3427.85
aF1968.93
aaa(lp3312
g3311
aa(lp3313
g2661
aa(lp3314
g2661
aa(lp3315
g2661
aa(lp3316
(lp3317
F3410.85
aF2075.23
aaa(lp3318
g2550
aa(lp3319
g2550
aa(lp3320
g3208
aa(lp3321
g3208
aa(lp3322
g3208
aa(lp3323
g3208
aa(lp3324
g3211
aa(lp3325
g3211
aa(lp3326
g3211
aa(lp3327
g3211
aa(lp3328
g3211
aa(lp3329
g3104
aa(lp3330
g3104
aa(lp3331
g3104
aa(lp3332
g3003
aa(lp3333
g3003
aa(lp3334
g3003
aa(lp3335
g3003
aa(lp3336
g3003
aa(lp3337
g3003
aa(lp3338
g2902
aa(lp3339
g2902
aa(lp3340
g2902
aa(lp3341
g2902
aa(lp3342
g2908
aa(lp3343
g2908
aa(lp3344
g2908
aa(lp3345
g2908
aa(lp3346
g2908
aa(lp3347
g2804
aa(lp3348
g2804
aa(lp3349
g2804
aa(lp3350
g2804
aa(lp3351
g2699
aa(lp3352
g2699
aa(lp3353
g2699
aa(lp3354
(lp3355
F3427.28
aF2905.18
aaa(lp3356
g3355
aa(lp3357
g2705
aa(lp3358
g2705
aa(lp3359
g2705
aa(lp3360
(lp3361
F3409.93
aF3007.74
aaa(lp3362
g3361
aa(lp3363
g3251
aa(lp3364
g3251
aa(lp3365
g3251
aa(lp3366
g3251
aa(lp3367
g3254
aa(lp3368
g3143
aa(lp3369
g3143
aa(lp3370
g3143
aa(lp3371
g3143
aa(lp3372
g3146
aa(lp3373
g3149
ag3150
aa(lp3374
g3149
ag3150
aa(lp3375
g3149
ag3150
aa(lp3376
g3153
aa(lp3377
g3153
aa(lp3378
g3153
aa(lp3379
g3157
aa(lp3380
g3157
aa(lp3381
g3157
aa(lp3382
g3157
aa(lp3383
g3157
aa(lp3384
g2950
aa(lp3385
g2950
aa(lp3386
g2950
aa(lp3387
g2950
aa(lp3388
g2950
aaa(lp3389
(lp3390
g2741
aa(lp3391
g2741
aa(lp3392
g2741
aa(lp3393
g2741
aa(lp3394
g2741
aa(lp3395
g3282
ag3283
ag3284
ag3285
aa(lp3396
g3282
ag3283
ag3284
ag3285
aa(lp3397
g3282
ag3283
ag3284
ag3285
aa(lp3398
(lp3399
F3361.41
aF1555.45
aaa(lp3400
g3293
aa(lp3401
g3293
aa(lp3402
(lp3403
F3405.31
aF1646.24
aaa(lp3404
g3403
aa(lp3405
g3403
aa(lp3406
g3403
aa(lp3407
g2864
aa(lp3408
g2864
aa(lp3409
g2864
aa(lp3410
g2864
aa(lp3411
g2761
aa(lp3412
g2761
aa(lp3413
g2761
aa(lp3414
(lp3415
F3444.33
aF1865.63
aaa(lp3416
g2764
aa(lp3417
(lp3418
F3436.13
aF1917.11
aaa(lp3419
g3311
aa(lp3420
g3311
aa(lp3421
g3311
aa(lp3422
g3311
aa(lp3423
g3317
aa(lp3424
g3317
aa(lp3425
g3317
aa(lp3426
g3317
aa(lp3427
g3208
aa(lp3428
g3208
aa(lp3429
g3208
aa(lp3430
g3208
aa(lp3431
g3208
aa(lp3432
g3211
aa(lp3433
g3211
aa(lp3434
g3211
aa(lp3435
g3211
aa(lp3436
g3211
aa(lp3437
g3104
aa(lp3438
g3104
aa(lp3439
g3104
aa(lp3440
g3104
aa(lp3441
g3003
aa(lp3442
g3003
aa(lp3443
g3003
aa(lp3444
g3003
aa(lp3445
g3003
aa(lp3446
g2902
aa(lp3447
g2902
aa(lp3448
g2902
aa(lp3449
g2902
aa(lp3450
g2908
aa(lp3451
g2908
aa(lp3452
g2908
aa(lp3453
g2908
aa(lp3454
g2908
aa(lp3455
g2804
aa(lp3456
g2804
aa(lp3457
(lp3458
F3444.72
aF2801.87
aaa(lp3459
g3458
aa(lp3460
g3355
aa(lp3461
g3355
aa(lp3462
g3355
aa(lp3463
g3355
aa(lp3464
g3355
aa(lp3465
g3355
aa(lp3466
g3361
aa(lp3467
g3361
aa(lp3468
g3361
aa(lp3469
g3361
aa(lp3470
g3251
aa(lp3471
g3251
aa(lp3472
g3251
aa(lp3473
g3251
aa(lp3474
g3254
aa(lp3475
g3143
aa(lp3476
g3143
aa(lp3477
g3143
aa(lp3478
g3143
aa(lp3479
g3146
aa(lp3480
g3146
aa(lp3481
(lp3482
F3360.6
aF3309.95
aaa(lp3483
g3482
aa(lp3484
g3153
aa(lp3485
g3153
aa(lp3486
(lp3487
F3362.84
aF3426.16
aaa(lp3488
g3487
aa(lp3489
g3487
aa(lp3490
g3487
aa(lp3491
g3487
aa(lp3492
g3487
aa(lp3493
g2950
aa(lp3494
g2950
aa(lp3495
g2950
aa(lp3496
g2950
aa(lp3497
g2950
aaa(lp3498
(lp3499
g2741
aa(lp3500
g2741
aa(lp3501
g2741
aa(lp3502
g2741
aa(lp3503
g2741
aa(lp3504
g3282
ag3283
ag3284
ag3285
aa(lp3505
g3282
ag3283
ag3284
ag3285
aa(lp3506
g3282
ag3283
ag3284
ag3285
aa(lp3507
g3399
aa(lp3508
(lp3509
F3415.27
aF1575.94
aaa(lp3510
g3403
aa(lp3511
g3403
aa(lp3512
g3403
aa(lp3513
g3403
aa(lp3514
g3403
aa(lp3515
g3403
aa(lp3516
g2864
aa(lp3517
(lp3518
F3460.89
aF1761.55
aaa(lp3519
g3518
aa(lp3520
g3415
aa(lp3521
g3415
aa(lp3522
g3415
aa(lp3523
g3415
aa(lp3524
g3415
aa(lp3525
g3418
aa(lp3526
g3311
aa(lp3527
g3311
aa(lp3528
g3311
aa(lp3529
g3311
aa(lp3530
g3317
aa(lp3531
g3317
aa(lp3532
g3317
aa(lp3533
g3317
aa(lp3534
g3208
aa(lp3535
g3208
aa(lp3536
g3208
aa(lp3537
g3208
aa(lp3538
g3208
aa(lp3539
g3208
aa(lp3540
g3211
aa(lp3541
g3211
aa(lp3542
g3211
aa(lp3543
g3211
aa(lp3544
g3104
aa(lp3545
g3104
aa(lp3546
g3104
aa(lp3547
g3104
aa(lp3548
g3003
aa(lp3549
g3003
aa(lp3550
g3003
aa(lp3551
g3003
aa(lp3552
g3003
aa(lp3553
g2902
aa(lp3554
g2902
aa(lp3555
(lp3556
F3476.71
aF2592.51
aaa(lp3557
g3556
aa(lp3558
g2908
aa(lp3559
g2908
aa(lp3560
g2908
aa(lp3561
(lp3562
F3459.87
aF2712.87
aa(lp3563
F3459.88
aF2695.52
aaa(lp3564
g3562
ag3563
aa(lp3565
g3458
aa(lp3566
g3458
aa(lp3567
g3458
aa(lp3568
g3458
aa(lp3569
g3355
aa(lp3570
g3355
aa(lp3571
g3355
aa(lp3572
g3355
aa(lp3573
g3355
aa(lp3574
g3355
aa(lp3575
g3361
aa(lp3576
g3361
aa(lp3577
g3361
aa(lp3578
g3361
aa(lp3579
g3251
aa(lp3580
g3251
aa(lp3581
g3251
aa(lp3582
g3251
aa(lp3583
g3254
aa(lp3584
g3254
aa(lp3585
g3143
aa(lp3586
g3143
aa(lp3587
g3143
aa(lp3588
g3146
aa(lp3589
g3146
aa(lp3590
g3482
aa(lp3591
g3482
aa(lp3592
g3153
aa(lp3593
g3153
aa(lp3594
(lp3595
F3388.23
aF3430.25
aaa(lp3596
g3595
aa(lp3597
g3595
aa(lp3598
g3595
aa(lp3599
g3595
aa(lp3600
g3595
aa(lp3601
g3595
aa(lp3602
g2950
aa(lp3603
g2950
aa(lp3604
g2950
aa(lp3605
g2950
aaa(lp3606
(lp3607
g2741
aa(lp3608
g2741
aa(lp3609
g2741
aa(lp3610
g2741
aa(lp3611
g2741
aa(lp3612
g3509
aa(lp3613
g3509
aa(lp3614
g3509
aa(lp3615
g3509
aa(lp3616
g3509
aa(lp3617
g3509
aa(lp3618
g3403
aa(lp3619
g3403
aa(lp3620
g3403
aa(lp3621
g3403
aa(lp3622
g3403
aa(lp3623
g3518
aa(lp3624
g3518
aa(lp3625
g3518
aa(lp3626
g3415
aa(lp3627
g3415
aa(lp3628
g3415
aa(lp3629
g3415
aa(lp3630
g3415
aa(lp3631
g3418
aa(lp3632
g3311
aa(lp3633
g3311
aa(lp3634
g3311
aa(lp3635
g3311
aa(lp3636
g3317
aa(lp3637
g3317
aa(lp3638
g3317
aa(lp3639
g3317
aa(lp3640
g3317
aa(lp3641
(lp3642
F3431.01
aF2184.98
aaa(lp3643
g3642
aa(lp3644
g3642
aa(lp3645
g3642
aa(lp3646
g3642
aa(lp3647
(lp3648
F3416.56
aF2281.23
aaa(lp3649
g3648
aa(lp3650
g3648
aa(lp3651
g3648
aa(lp3652
g3104
aa(lp3653
g3104
aa(lp3654
g3104
aa(lp3655
g3104
aa(lp3656
g3003
aa(lp3657
g3003
aa(lp3658
g3003
aa(lp3659
(lp3660
F3491.69
aF2494.88
aaa(lp3661
g3660
aa(lp3662
(lp3663
F3484.46
aF2543.7
aaa(lp3664
g3556
aa(lp3665
g3556
aa(lp3666
g3556
aa(lp3667
g3556
aa(lp3668
g3562
ag3563
aa(lp3669
g3562
ag3563
aa(lp3670
g3562
ag3563
aa(lp3671
g3562
ag3563
aa(lp3672
g3458
aa(lp3673
g3458
aa(lp3674
g3458
aa(lp3675
g3458
aa(lp3676
g3355
aa(lp3677
g3355
aa(lp3678
g3355
aa(lp3679
g3355
aa(lp3680
g3355
aa(lp3681
g3355
aa(lp3682
g3361
aa(lp3683
g3361
aa(lp3684
g3361
aa(lp3685
g3361
aa(lp3686
g3361
aa(lp3687
g3251
aa(lp3688
g3251
aa(lp3689
g3251
aa(lp3690
g3254
aa(lp3691
g3254
aa(lp3692
g3143
aa(lp3693
g3143
aa(lp3694
g3143
aa(lp3695
g3146
aa(lp3696
g3146
aa(lp3697
g3482
aa(lp3698
g3482
aa(lp3699
g3153
aa(lp3700
g3153
aa(lp3701
g3595
aa(lp3702
g3595
aa(lp3703
(lp3704
F3415.29
aF3434.61
aaa(lp3705
g3704
aa(lp3706
g3704
aa(lp3707
g3704
aa(lp3708
g3704
aa(lp3709
g3704
aa(lp3710
g2950
aa(lp3711
g2950
aa(lp3712
g2950
aaa(lp3713
(lp3714
g2741
aa(lp3715
g2741
aa(lp3716
g2741
aa(lp3717
(lp3718
F3510.76
aF1451.09
aaa(lp3719
g3718
aa(lp3720
g3509
aa(lp3721
g3509
aa(lp3722
g3509
aa(lp3723
g3509
aa(lp3724
g3509
aa(lp3725
g3509
aa(lp3726
g3403
aa(lp3727
g3403
aa(lp3728
(lp3729
F3477.54
aF1657.69
aaa(lp3730
g3729
aa(lp3731
g3729
aa(lp3732
g3518
aa(lp3733
g3518
aa(lp3734
g3518
aa(lp3735
g3415
aa(lp3736
g3415
aa(lp3737
g3415
aa(lp3738
g3415
aa(lp3739
g3415
aa(lp3740
g3418
aa(lp3741
g3418
aa(lp3742
g3311
aa(lp3743
g3311
aa(lp3744
g3311
aa(lp3745
g3317
aa(lp3746
g3317
aa(lp3747
g3317
aa(lp3748
g3317
aa(lp3749
g3317
aa(lp3750
(lp3751
F3443.66
aF2187.13
aaa(lp3752
g3751
aa(lp3753
g3751
aa(lp3754
g3751
aa(lp3755
g3751
aa(lp3756
g3648
aa(lp3757
g3648
aa(lp3758
(lp3759
F3476.92
aF2291.79
aaa(lp3760
g3759
aa(lp3761
g3759
aa(lp3762
g3104
aa(lp3763
(lp3764
F3507.37
aF2397.03
aaa(lp3765
g3764
aa(lp3766
g3660
aa(lp3767
g3660
aa(lp3768
g3660
aa(lp3769
g3660
aa(lp3770
g3660
aa(lp3771
g3663
aa(lp3772
g3556
aa(lp3773
g3556
aa(lp3774
g3556
aa(lp3775
g3556
aa(lp3776
g3562
ag3563
aa(lp3777
g3562
ag3563
aa(lp3778
g3562
ag3563
aa(lp3779
g3562
ag3563
aa(lp3780
g3458
aa(lp3781
g3458
aa(lp3782
g3458
aa(lp3783
g3458
aa(lp3784
g3458
aa(lp3785
g3355
aa(lp3786
g3355
aa(lp3787
g3355
aa(lp3788
g3355
aa(lp3789
g3355
aa(lp3790
g3361
aa(lp3791
g3361
aa(lp3792
g3361
aa(lp3793
g3361
aa(lp3794
g3361
aa(lp3795
g3251
aa(lp3796
g3251
aa(lp3797
g3251
aa(lp3798
g3254
aa(lp3799
g3254
aa(lp3800
(lp3801
F3529.26
aF3187.07
aaa(lp3802
g3143
aa(lp3803
(lp3804
F3520.98
aF3238.77
aaa(lp3805
g3146
aa(lp3806
(lp3807
F3511.12
aF3290.62
aaa(lp3808
g3482
aa(lp3809
(lp3810
F3502.92
aF3343.76
aa(lp3811
F3503.98
aF3336.73
aa(lp3812
F3504.6
aF3332.57
aaa(lp3813
g3810
ag3811
ag3812
aa(lp3814
(lp3815
F3442.96
aF3439.06
aaa(lp3816
g3815
aa(lp3817
g3815
aa(lp3818
g3815
aa(lp3819
g3815
aa(lp3820
g3815
aa(lp3821
g3815
aa(lp3822
g3815
aa(lp3823
g3815
aa(lp3824
g2950
aa(lp3825
g2950
aa(lp3826
g2950
aaa(lp3827
(lp3828
(lp3829
F3517.55
aF1408.95
aaa(lp3830
g3829
aa(lp3831
g3829
aa(lp3832
g3718
aa(lp3833
g3718
aa(lp3834
(lp3835
F3492.46
aF1563.11
aa(lp3836
F3493.14
aF1558.93
aa(lp3837
F3494.29
aF1551.36
aaa(lp3838
g3835
ag3836
ag3837
aa(lp3839
g3835
ag3836
ag3837
aa(lp3840
g3835
ag3836
ag3837
aa(lp3841
(lp3842
F3488.82
aF1587.5
aa(lp3843
F3489.35
aF1582.31
aa(lp3844
F3490.33
aF1576.25
aaa(lp3845
g3842
ag3843
ag3844
aa(lp3846
g3729
aa(lp3847
g3729
aa(lp3848
g3729
aa(lp3849
g3729
aa(lp3850
g3729
aa(lp3851
g3518
aa(lp3852
g3518
aa(lp3853
g3518
aa(lp3854
g3518
aa(lp3855
g3415
aa(lp3856
g3415
aa(lp3857
g3415
aa(lp3858
g3415
aa(lp3859
g3418
aa(lp3860
g3418
aa(lp3861
g3311
aa(lp3862
(lp3863
F3499.99
aF1980.6
aaa(lp3864
g3863
aa(lp3865
g3863
aa(lp3866
g3317
aa(lp3867
g3317
aa(lp3868
(lp3869
F3482.99
aF2086.91
aaa(lp3870
g3869
aa(lp3871
g3751
aa(lp3872
g3751
aa(lp3873
g3751
aa(lp3874
g3751
aa(lp3875
(lp3876
F3479.12
aF2281.63
aaa(lp3877
g3876
aa(lp3878
g3876
aa(lp3879
g3759
aa(lp3880
g3759
aa(lp3881
g3759
aa(lp3882
g3759
aa(lp3883
g3764
aa(lp3884
g3764
aa(lp3885
g3660
aa(lp3886
g3660
aa(lp3887
g3660
aa(lp3888
g3660
aa(lp3889
g3660
aa(lp3890
g3663
aa(lp3891
g3556
aa(lp3892
g3556
aa(lp3893
g3556
aa(lp3894
g3556
aa(lp3895
g3562
ag3563
aa(lp3896
g3562
ag3563
aa(lp3897
g3562
ag3563
aa(lp3898
g3562
ag3563
aa(lp3899
g3562
ag3563
aa(lp3900
g3458
aa(lp3901
g3458
aa(lp3902
g3458
aa(lp3903
g3458
aa(lp3904
g3355
aa(lp3905
g3355
aa(lp3906
g3355
aa(lp3907
g3355
aa(lp3908
g3355
aa(lp3909
g3361
aa(lp3910
g3361
aa(lp3911
g3361
aa(lp3912
g3361
aa(lp3913
g3361
aa(lp3914
g3251
aa(lp3915
g3251
aa(lp3916
(lp3917
F3537.54
aF3135.25
aaa(lp3918
g3254
aa(lp3919
g3801
aa(lp3920
g3801
aa(lp3921
g3801
aa(lp3922
g3804
aa(lp3923
g3804
aa(lp3924
g3807
aa(lp3925
g3810
ag3811
ag3812
aa(lp3926
g3810
ag3811
ag3812
aa(lp3927
g3810
ag3811
ag3812
aa(lp3928
(lp3929
F3496.05
aF3394.77
aaa(lp3930
g3929
aa(lp3931
(lp3932
F3464.58
aF3442.53
aaa(lp3933
g3932
aa(lp3934
g3932
aa(lp3935
g3932
aa(lp3936
g3932
aa(lp3937
g3932
aa(lp3938
g3932
aa(lp3939
g3932
aa(lp3940
g2950
aa(lp3941
g2950
aaa(lp3942
(lp3943
g3829
aa(lp3944
g3829
aa(lp3945
g3829
aa(lp3946
g3718
aa(lp3947
g3718
aa(lp3948
g3835
ag3836
ag3837
aa(lp3949
g3835
ag3836
ag3837
aa(lp3950
g3835
ag3836
ag3837
aa(lp3951
g3835
ag3836
ag3837
aa(lp3952
g3842
ag3843
ag3844
aa(lp3953
g3842
ag3843
ag3844
aa(lp3954
g3842
ag3843
ag3844
aa(lp3955
g3729
aa(lp3956
g3729
aa(lp3957
g3729
aa(lp3958
g3729
aa(lp3959
g3518
aa(lp3960
g3518
aa(lp3961
g3518
aa(lp3962
g3518
aa(lp3963
g3415
aa(lp3964
g3415
aa(lp3965
g3415
aa(lp3966
g3415
aa(lp3967
g3418
aa(lp3968
g3863
aa(lp3969
g3863
aa(lp3970
g3863
aa(lp3971
g3863
aa(lp3972
g3863
aa(lp3973
g3869
aa(lp3974
g3869
aa(lp3975
g3869
aa(lp3976
g3869
aa(lp3977
g3869
aa(lp3978
g3751
aa(lp3979
g3751
aa(lp3980
(lp3981
F3538.65
aF2201.77
aaa(lp3982
g3876
aa(lp3983
g3876
aa(lp3984
g3876
aa(lp3985
g3759
aa(lp3986
g3759
aa(lp3987
g3759
aa(lp3988
g3764
aa(lp3989
g3764
aa(lp3990
g3764
aa(lp3991
g3660
aa(lp3992
g3660
aa(lp3993
g3660
aa(lp3994
g3660
aa(lp3995
g3660
aa(lp3996
g3663
aa(lp3997
g3663
aa(lp3998
g3556
aa(lp3999
g3556
aa(lp4000
g3556
aa(lp4001
(lp4002
F3531.77
aF2666.57
aaa(lp4003
g3562
ag3563
aa(lp4004
g3562
ag3563
aa(lp4005
g3562
ag3563
aa(lp4006
g3562
ag3563
aa(lp4007
g3458
aa(lp4008
g3458
aa(lp4009
g3458
aa(lp4010
g3458
aa(lp4011
g3355
aa(lp4012
g3355
aa(lp4013
g3355
aa(lp4014
(lp4015
F3570.76
aF2927.98
aaa(lp4016
g4015
aa(lp4017
g3361
aa(lp4018
g3361
aa(lp4019
g3361
aa(lp4020
(lp4021
F3554.19
aF3031.62
aaa(lp4022
g4021
aa(lp4023
g3917
aa(lp4024
g3917
aa(lp4025
g3917
aa(lp4026
g3801
aa(lp4027
g3801
aa(lp4028
g3801
aa(lp4029
g3801
aa(lp4030
g3804
aa(lp4031
g3804
aa(lp4032
g3807
aa(lp4033
g3810
ag3811
ag3812
aa(lp4034
g3810
ag3811
ag3812
aa(lp4035
g3810
ag3811
ag3812
aa(lp4036
g3929
aa(lp4037
g3929
aa(lp4038
g3929
aa(lp4039
(lp4040
F3487.77
aF3446.26
aaa(lp4041
g4040
aa(lp4042
g4040
aa(lp4043
g4040
aa(lp4044
g4040
aa(lp4045
g4040
aa(lp4046
(lp4047
F3615.99
aF3573.03
aaa(lp4048
g4047
aa(lp4049
g4047
aaa(lp4050
(lp4051
g3829
aa(lp4052
g3829
aa(lp4053
g3829
aa(lp4054
g3718
aa(lp4055
g3718
aa(lp4056
g3718
aa(lp4057
g3835
ag3836
ag3837
aa(lp4058
g3835
ag3836
ag3837
aa(lp4059
g3835
ag3836
ag3837
aa(lp4060
g3842
ag3843
ag3844
aa(lp4061
g3842
ag3843
ag3844
aa(lp4062
g3842
ag3843
ag3844
aa(lp4063
g3729
aa(lp4064
g3729
aa(lp4065
g3729
aa(lp4066
g3729
aa(lp4067
g3518
aa(lp4068
g3518
aa(lp4069
(lp4070
F3552.72
aF1776.94
aaa(lp4071
g4070
aa(lp4072
g4070
aa(lp4073
(lp4074
F3536.59
aF1879.75
aaa(lp4075
g4074
aa(lp4076
g4074
aa(lp4077
g3418
aa(lp4078
g3863
aa(lp4079
g3863
aa(lp4080
g3863
aa(lp4081
g3863
aa(lp4082
g3863
aa(lp4083
g3869
aa(lp4084
g3869
aa(lp4085
g3869
aa(lp4086
g3869
aa(lp4087
g3869
aa(lp4088
g3981
aa(lp4089
g3981
aa(lp4090
g3981
aa(lp4091
g3981
aa(lp4092
(lp4093
F3523.05
aF2299.18
aaa(lp4094
g4093
aa(lp4095
g4093
aa(lp4096
g4093
aa(lp4097
g4093
aa(lp4098
g3764
aa(lp4099
g3764
aa(lp4100
g3764
aa(lp4101
g3764
aa(lp4102
g3660
aa(lp4103
g3660
aa(lp4104
g3660
aa(lp4105
g3660
aa(lp4106
g3663
aa(lp4107
g3663
aa(lp4108
g3556
aa(lp4109
g3556
aa(lp4110
g4002
aa(lp4111
g4002
aa(lp4112
(lp4113
F3525.78
aF2705.03
aaa(lp4114
g4113
aa(lp4115
g4113
aa(lp4116
g4113
aa(lp4117
g4113
aa(lp4118
g3458
aa(lp4119
(lp4120
F3587.32
aF2824.46
aaa(lp4121
g4120
aa(lp4122
g4015
aa(lp4123
g4015
aa(lp4124
g4015
aa(lp4125
g4015
aa(lp4126
g4015
aa(lp4127
g4015
aa(lp4128
g4021
aa(lp4129
g4021
aa(lp4130
g4021
aa(lp4131
g4021
aa(lp4132
g3917
aa(lp4133
g3917
aa(lp4134
g3917
aa(lp4135
g3801
aa(lp4136
g3801
aa(lp4137
g3801
aa(lp4138
g3801
aa(lp4139
g3804
aa(lp4140
g3804
aa(lp4141
g3807
aa(lp4142
g3807
aa(lp4143
g3810
ag3811
ag3812
aa(lp4144
g3810
ag3811
ag3812
aa(lp4145
g3929
aa(lp4146
g3929
aa(lp4147
(lp4148
F3506.66
aF3449.3
aaa(lp4149
g4148
aa(lp4150
g4148
aa(lp4151
g4148
aa(lp4152
g4148
aa(lp4153
g4148
aa(lp4154
g4148
aa(lp4155
g4047
aa(lp4156
g4047
aa(lp4157
g4047
aaa(lp4158
(lp4159
g3829
aa(lp4160
g3829
aa(lp4161
g3829
aa(lp4162
g3718
aa(lp4163
g3718
aa(lp4164
g3718
aa(lp4165
g3835
ag3836
ag3837
aa(lp4166
g3835
ag3836
ag3837
aa(lp4167
g3835
ag3836
ag3837
aa(lp4168
g3842
ag3843
ag3844
aa(lp4169
g3842
ag3843
ag3844
aa(lp4170
g3842
ag3843
ag3844
aa(lp4171
g3729
aa(lp4172
g3729
aa(lp4173
(lp4174
F3622.18
aF1680.26
aaa(lp4175
g4070
aa(lp4176
g4070
aa(lp4177
g4070
aa(lp4178
g4070
aa(lp4179
g4070
aa(lp4180
g4070
aa(lp4181
g4074
aa(lp4182
g4074
aa(lp4183
g4074
aa(lp4184
g4074
aa(lp4185
(lp4186
F3580.5
aF1940.8
aaa(lp4187
(lp4188
F3572.31
aF1992.17
aaa(lp4189
g4188
aa(lp4190
g4188
aa(lp4191
g4188
aa(lp4192
(lp4193
F3555.21
aF2098.47
aaa(lp4194
g4193
aa(lp4195
g4193
aa(lp4196
g4193
aa(lp4197
g3981
aa(lp4198
g3981
aa(lp4199
g3981
aa(lp4200
g3981
aa(lp4201
g3981
aa(lp4202
g3981
aa(lp4203
g4093
aa(lp4204
g4093
aa(lp4205
g4093
aa(lp4206
g4093
aa(lp4207
g3764
aa(lp4208
g3764
aa(lp4209
g3764
aa(lp4210
g3764
aa(lp4211
g3660
aa(lp4212
g3660
aa(lp4213
g3660
aa(lp4214
(lp4215
F3564.33
aF2555.69
aaa(lp4216
g4215
aa(lp4217
g4215
aa(lp4218
g3556
aa(lp4219
g4002
aa(lp4220
g4002
aa(lp4221
g4002
aa(lp4222
g4002
aa(lp4223
g4113
aa(lp4224
g4113
aa(lp4225
g4113
aa(lp4226
g4113
aa(lp4227
g4120
aa(lp4228
g4120
aa(lp4229
g4120
aa(lp4230
g4015
aa(lp4231
g4015
aa(lp4232
g4015
aa(lp4233
g4015
aa(lp4234
g4015
aa(lp4235
g4015
aa(lp4236
g4021
aa(lp4237
g4021
aa(lp4238
g4021
aa(lp4239
g4021
aa(lp4240
g3917
aa(lp4241
g3917
aa(lp4242
g3917
aa(lp4243
g3917
aa(lp4244
g3801
aa(lp4245
g3801
aa(lp4246
g3801
aa(lp4247
g3804
aa(lp4248
g3804
aa(lp4249
g3807
aa(lp4250
g3807
aa(lp4251
g3810
ag3811
ag3812
aa(lp4252
g3810
ag3811
ag3812
aa(lp4253
g3929
aa(lp4254
g3929
aa(lp4255
g4148
aa(lp4256
g4148
aa(lp4257
g4148
aa(lp4258
g4148
aa(lp4259
g4148
aa(lp4260
(lp4261
F3611.07
aF3542.75
aa(lp4262
F3621.01
aF3541.58
aaa(lp4263
g4261
ag4262
aa(lp4264
g4047
aa(lp4265
g4047
aa(lp4266
g4047
aaa(lp4267
(lp4268
g3829
aa(lp4269
g3829
aa(lp4270
g3829
aa(lp4271
g3718
aa(lp4272
g3718
aa(lp4273
g3718
aa(lp4274
g3835
ag3836
ag3837
aa(lp4275
g3835
ag3836
ag3837
aa(lp4276
g3835
ag3836
ag3837
aa(lp4277
(lp4278
F3623.72
aF1584.31
aaa(lp4279
(lp4280
F3618.62
aF1596.94
aaa(lp4281
g4280
aa(lp4282
(lp4283
F3625.81
aF1656.5
aaa(lp4284
g4283
aa(lp4285
g4174
aa(lp4286
g4174
aa(lp4287
g4070
aa(lp4288
g4070
aa(lp4289
g4070
aa(lp4290
g4070
aa(lp4291
g4070
aa(lp4292
g4074
aa(lp4293
g4074
aa(lp4294
(lp4295
F3589.05
aF1888.98
aa(lp4296
F3597.75
aF1881.43
aaa(lp4297
g4295
ag4296
aa(lp4298
g4186
aa(lp4299
g4188
aa(lp4300
g4188
aa(lp4301
g4188
aa(lp4302
g4188
aa(lp4303
g4193
aa(lp4304
g4193
aa(lp4305
g4193
aa(lp4306
g4193
aa(lp4307
g4193
aa(lp4308
g3981
aa(lp4309
g3981
aa(lp4310
g3981
aa(lp4311
g3981
aa(lp4312
g3981
aa(lp4313
g4093
aa(lp4314
g4093
aa(lp4315
(lp4316
F3611.01
aF2312.83
aaa(lp4317
g4316
aa(lp4318
g3764
aa(lp4319
g3764
aa(lp4320
g3764
aa(lp4321
g3764
aa(lp4322
g4215
aa(lp4323
g4215
aa(lp4324
g4215
aa(lp4325
g4215
aa(lp4326
g4215
aa(lp4327
g4215
aa(lp4328
g4215
aa(lp4329
(lp4330
F3620.72
aF2615.75
aaa(lp4331
g4002
aa(lp4332
g4002
aa(lp4333
g4002
aa(lp4334
g4113
aa(lp4335
(lp4336
F3604.41
aF2717.72
aaa(lp4337
g4336
aa(lp4338
g4120
aa(lp4339
g4120
aa(lp4340
g4120
aa(lp4341
g4120
aa(lp4342
g4015
aa(lp4343
g4015
aa(lp4344
g4015
aa(lp4345
g4015
aa(lp4346
g4015
aa(lp4347
g4015
aa(lp4348
g4021
aa(lp4349
g4021
aa(lp4350
g4021
aa(lp4351
g4021
aa(lp4352
g4021
aa(lp4353
g3917
aa(lp4354
g3917
aa(lp4355
g3917
aa(lp4356
g3801
aa(lp4357
g3801
aa(lp4358
g3801
aa(lp4359
g3804
aa(lp4360
g3804
aa(lp4361
g3807
aa(lp4362
g3807
aa(lp4363
g3810
ag3811
ag3812
aa(lp4364
(lp4365
F3648.74
aF3361.17
aa(lp4366
F3649.38
aF3356.25
aaa(lp4367
(lp4368
F3647.97
aF3366.97
aaa(lp4369
g3929
aa(lp4370
g4148
aa(lp4371
g4148
aa(lp4372
(lp4373
F3583.88
aF3461.71
aaa(lp4374
g4373
aa(lp4375
g4373
aa(lp4376
g4261
ag4262
aa(lp4377
g4261
ag4262
aa(lp4378
g4047
aa(lp4379
g4047
aa(lp4380
g4047
aaa(lp4381
(lp4382
(lp4383
F3684.36
aF1373.67
aaa(lp4384
g3829
aa(lp4385
g3829
aa(lp4386
g3718
aa(lp4387
(lp4388
F3655.32
aF1474.22
aaa(lp4389
(lp4390
F3666.92
aF1476.26
aaa(lp4391
g4278
aa(lp4392
g4278
aa(lp4393
g4278
aa(lp4394
g4278
aa(lp4395
g4280
aa(lp4396
g4280
aa(lp4397
g4283
aa(lp4398
g4283
aa(lp4399
g4174
aa(lp4400
g4174
aa(lp4401
g4174
aa(lp4402
(lp4403
F3604.12
aF1784.96
aa(lp4404
F3619.67
aF1788.65
aaa(lp4405
g4403
ag4404
aa(lp4406
g4403
ag4404
aa(lp4407
(lp4408
F3587.74
aF1877.3
aaa(lp4409
g4408
aa(lp4410
g4408
aa(lp4411
g4295
ag4296
aa(lp4412
g4295
ag4296
aa(lp4413
g4186
aa(lp4414
g4186
aa(lp4415
g4188
aa(lp4416
g4188
aa(lp4417
g4188
aa(lp4418
g4193
aa(lp4419
g4193
aa(lp4420
g4193
aa(lp4421
g4193
aa(lp4422
g4193
aa(lp4423
g3981
aa(lp4424
g3981
aa(lp4425
g3981
aa(lp4426
g3981
aa(lp4427
g3981
aa(lp4428
g4316
aa(lp4429
g4316
aa(lp4430
g4316
aa(lp4431
g4316
aa(lp4432
g4316
aa(lp4433
g3764
aa(lp4434
(lp4435
F3652.17
aF2420.16
aaa(lp4436
g4435
aa(lp4437
g4215
aa(lp4438
g4215
aa(lp4439
g4215
aa(lp4440
g4215
aa(lp4441
g4215
aa(lp4442
g4215
aa(lp4443
g4330
aa(lp4444
g4330
aa(lp4445
g4330
aa(lp4446
g4002
aa(lp4447
g4002
aa(lp4448
g4336
aa(lp4449
g4336
aa(lp4450
g4336
aa(lp4451
g4120
aa(lp4452
g4120
aa(lp4453
g4120
aa(lp4454
g4120
aa(lp4455
g4120
aa(lp4456
g4015
aa(lp4457
g4015
aa(lp4458
g4015
aa(lp4459
g4015
aa(lp4460
g4015
aa(lp4461
(lp4462
F3630.48
aF2986.92
aaa(lp4463
g4021
aa(lp4464
g4021
aa(lp4465
g4021
aa(lp4466
g4021
aa(lp4467
g3917
aa(lp4468
g3917
aa(lp4469
g3917
aa(lp4470
g3801
aa(lp4471
g3801
aa(lp4472
g3801
aa(lp4473
g3804
aa(lp4474
(lp4475
F3665.59
aF3262.01
aaa(lp4476
g3807
aa(lp4477
g3807
aa(lp4478
g4365
ag4366
aa(lp4479
g4365
ag4366
aa(lp4480
g4368
aa(lp4481
g4373
aa(lp4482
g4373
aa(lp4483
g4373
aa(lp4484
g4373
aa(lp4485
g4373
aa(lp4486
g4373
aa(lp4487
g4261
ag4262
aa(lp4488
g4261
ag4262
aa(lp4489
g4047
aa(lp4490
g4047
aa(lp4491
g4047
aaa(lp4492
(lp4493
g4383
aa(lp4494
(lp4495
F3663.81
aF1422.58
aaa(lp4496
g4495
aa(lp4497
g4495
aa(lp4498
g4388
aa(lp4499
g4390
aa(lp4500
g4278
aa(lp4501
g4278
aa(lp4502
g4278
aa(lp4503
g4278
aa(lp4504
g4280
aa(lp4505
g4280
aa(lp4506
g4283
aa(lp4507
g4283
aa(lp4508
g4174
aa(lp4509
g4174
aa(lp4510
g4174
aa(lp4511
g4403
ag4404
aa(lp4512
g4403
ag4404
aa(lp4513
g4403
ag4404
aa(lp4514
(lp4515
F3608.31
aF1850.51
aaa(lp4516
g4515
aa(lp4517
g4408
aa(lp4518
(lp4519
F3604.61
aF1882.93
aa(lp4520
F3612.69
aF1892.8
aaa(lp4521
g4519
ag4520
aa(lp4522
g4186
aa(lp4523
g4186
aa(lp4524
g4188
aa(lp4525
g4188
aa(lp4526
g4188
aa(lp4527
g4193
aa(lp4528
g4193
aa(lp4529
g4193
aa(lp4530
g4193
aa(lp4531
g4193
aa(lp4532
g3981
aa(lp4533
g3981
aa(lp4534
g3981
aa(lp4535
(lp4536
F3683.45
aF2224.9
aaa(lp4537
g4316
aa(lp4538
g4316
aa(lp4539
g4316
aa(lp4540
g4316
aa(lp4541
g4316
aa(lp4542
g4316
aa(lp4543
g4316
aa(lp4544
g4435
aa(lp4545
g4435
aa(lp4546
(lp4547
F3637.1
aF2518.12
aaa(lp4548
g4547
aa(lp4549
g4547
aa(lp4550
g4547
aa(lp4551
g4215
aa(lp4552
g4330
aa(lp4553
g4330
aa(lp4554
g4330
aa(lp4555
g4330
aa(lp4556
g4330
aa(lp4557
g4336
aa(lp4558
g4336
aa(lp4559
g4336
aa(lp4560
g4336
aa(lp4561
g4336
aa(lp4562
g4120
aa(lp4563
g4120
aa(lp4564
g4120
aa(lp4565
g4120
aa(lp4566
g4015
aa(lp4567
g4015
aa(lp4568
g4015
aa(lp4569
(lp4570
F3643.33
aF2939.55
aaa(lp4571
g4570
aa(lp4572
g4462
aa(lp4573
(lp4574
F3621.49
aF3042.4
aaa(lp4575
g4574
aa(lp4576
g4574
aa(lp4577
g4574
aa(lp4578
g4574
aa(lp4579
g3917
aa(lp4580
(lp4581
F3682.16
aF3158.49
aaa(lp4582
g4581
aa(lp4583
(lp4584
F3675.64
aF3199.08
aaa(lp4585
g4475
aa(lp4586
g4475
aa(lp4587
g4475
aa(lp4588
g4475
aa(lp4589
g4365
ag4366
aa(lp4590
g4365
ag4366
aa(lp4591
g4365
ag4366
aa(lp4592
g4368
aa(lp4593
g4368
aa(lp4594
(lp4595
F3640.57
aF3418.24
aaa(lp4596
g4373
aa(lp4597
g4373
aa(lp4598
g4373
aa(lp4599
g4261
ag4262
aa(lp4600
g4261
ag4262
aa(lp4601
g4261
ag4262
aa(lp4602
g4047
aa(lp4603
g4047
aa(lp4604
g4047
aaa(lp4605
(lp4606
g4383
aa(lp4607
g4495
aa(lp4608
g4495
aa(lp4609
g4495
aa(lp4610
g4388
aa(lp4611
g4390
aa(lp4612
g4390
aa(lp4613
(lp4614
F3636.72
aF1586.37
aa(lp4615
F3638.31
aF1575.18
aaa(lp4616
g4614
ag4615
aa(lp4617
g4614
ag4615
aa(lp4618
(lp4619
F3632.93
aF1609.76
aa(lp4620
F3634.43
aF1599.95
aa(lp4621
F3647.26
aF1602.22
aaa(lp4622
(lp4623
F3645.76
aF1612.03
aaa(lp4624
(lp4625
F3628.09
aF1641.52
aa(lp4626
F3640.84
aF1643.96
aaa(lp4627
(lp4628
F3638.52
aF1658.99
aaa(lp4629
(lp4630
F3635.01
aF1681.76
aaa(lp4631
g4630
aa(lp4632
g4630
aa(lp4633
g4403
ag4404
aa(lp4634
g4403
ag4404
aa(lp4635
g4403
ag4404
aa(lp4636
g4515
aa(lp4637
g4515
aa(lp4638
g4408
aa(lp4639
g4519
ag4520
aa(lp4640
g4519
ag4520
aa(lp4641
g4186
aa(lp4642
g4186
aa(lp4643
g4188
aa(lp4644
(lp4645
F3717.03
aF2015.41
aaa(lp4646
g4645
aa(lp4647
g4193
aa(lp4648
g4193
aa(lp4649
g4193
aa(lp4650
(lp4651
F3699.84
aF2121.71
aaa(lp4652
g4651
aa(lp4653
g4536
aa(lp4654
g4536
aa(lp4655
g4536
aa(lp4656
g4536
aa(lp4657
g4536
aa(lp4658
g4316
aa(lp4659
g4316
aa(lp4660
g4316
aa(lp4661
g4316
aa(lp4662
g4316
aa(lp4663
g4435
aa(lp4664
g4435
aa(lp4665
g4435
aa(lp4666
g4547
aa(lp4667
g4547
aa(lp4668
g4547
aa(lp4669
g4547
aa(lp4670
g4547
aa(lp4671
(lp4672
F3626.71
aF2580.28
aaa(lp4673
g4672
aa(lp4674
g4330
aa(lp4675
g4330
aa(lp4676
g4330
aa(lp4677
g4336
aa(lp4678
g4336
aa(lp4679
g4336
aa(lp4680
g4336
aa(lp4681
g4336
aa(lp4682
g4120
aa(lp4683
g4120
aa(lp4684
g4120
aa(lp4685
g4120
aa(lp4686
g4570
aa(lp4687
g4570
aa(lp4688
g4570
aa(lp4689
g4570
aa(lp4690
g4570
aa(lp4691
g4462
aa(lp4692
g4462
aa(lp4693
g4574
aa(lp4694
g4574
aa(lp4695
g4574
aa(lp4696
g4574
aa(lp4697
g4581
aa(lp4698
g4581
aa(lp4699
g4581
aa(lp4700
g4584
aa(lp4701
g4475
aa(lp4702
g4475
aa(lp4703
g4475
aa(lp4704
g4475
aa(lp4705
g4365
ag4366
aa(lp4706
g4365
ag4366
aa(lp4707
g4365
ag4366
aa(lp4708
g4368
aa(lp4709
g4368
aa(lp4710
g4595
aa(lp4711
g4595
aa(lp4712
(lp4713
F3632.46
aF3469.5
aaa(lp4714
g4713
aa(lp4715
g4261
ag4262
aa(lp4716
g4261
ag4262
aa(lp4717
g4261
ag4262
aa(lp4718
g4047
aa(lp4719
g4047
aa(lp4720
g4047
aaa(lp4721
(lp4722
g4383
aa(lp4723
g4495
aa(lp4724
g4495
aa(lp4725
g4495
aa(lp4726
g4388
aa(lp4727
g4390
aa(lp4728
g4390
aa(lp4729
g4390
aa(lp4730
(lp4731
F3652.11
aF1577.82
aa(lp4732
F3663.19
aF1580.16
aaa(lp4733
g4731
ag4732
aa(lp4734
(lp4735
F3650.61
aF1588.21
aa(lp4736
F3659.22
aF1603.99
aa(lp4737
F3661.62
aF1589.58
aaa(lp4738
(lp4739
F3657.7
aF1613.08
aaa(lp4740
g4625
ag4626
aa(lp4741
g4628
aa(lp4742
g4630
aa(lp4743
g4630
aa(lp4744
g4630
aa(lp4745
g4403
ag4404
aa(lp4746
g4403
ag4404
aa(lp4747
g4403
ag4404
aa(lp4748
g4515
aa(lp4749
g4515
aa(lp4750
g4408
aa(lp4751
g4519
ag4520
aa(lp4752
g4519
ag4520
aa(lp4753
g4186
aa(lp4754
g4186
aa(lp4755
g4645
aa(lp4756
g4645
aa(lp4757
g4645
aa(lp4758
g4645
aa(lp4759
g4651
aa(lp4760
g4651
aa(lp4761
g4651
aa(lp4762
g4651
aa(lp4763
g4536
aa(lp4764
g4536
aa(lp4765
g4536
aa(lp4766
g4536
aa(lp4767
g4536
aa(lp4768
(lp4769
F3667.86
aF2322.53
aaa(lp4770
g4769
aa(lp4771
g4769
aa(lp4772
g4769
aa(lp4773
g4769
aa(lp4774
g4435
aa(lp4775
g4435
aa(lp4776
g4435
aa(lp4777
g4435
aa(lp4778
g4547
aa(lp4779
g4547
aa(lp4780
g4547
aa(lp4781
g4547
aa(lp4782
g4672
aa(lp4783
g4672
aa(lp4784
g4330
aa(lp4785
g4330
aa(lp4786
g4330
aa(lp4787
g4336
aa(lp4788
g4336
aa(lp4789
g4336
aa(lp4790
g4336
aa(lp4791
g4336
aa(lp4792
g4120
aa(lp4793
g4120
aa(lp4794
(lp4795
F3731.85
aF2847.81
aaa(lp4796
g4795
aa(lp4797
g4570
aa(lp4798
g4570
aa(lp4799
g4570
aa(lp4800
g4570
aa(lp4801
g4570
aa(lp4802
g4462
aa(lp4803
g4462
aa(lp4804
g4574
aa(lp4805
(lp4806
F3698.72
aF3054.86
aaa(lp4807
g4806
aa(lp4808
g4806
aa(lp4809
g4581
aa(lp4810
g4581
aa(lp4811
g4581
aa(lp4812
g4584
aa(lp4813
g4475
aa(lp4814
g4475
aa(lp4815
g4475
aa(lp4816
g4475
aa(lp4817
g4475
aa(lp4818
g4365
ag4366
aa(lp4819
g4365
ag4366
aa(lp4820
g4368
aa(lp4821
g4368
aa(lp4822
g4595
aa(lp4823
g4595
aa(lp4824
g4713
aa(lp4825
g4713
aa(lp4826
g4261
ag4262
aa(lp4827
g4261
ag4262
aa(lp4828
g4261
ag4262
aa(lp4829
g4047
aa(lp4830
g4047
aa(lp4831
g4047
aaa(lp4832
(lp4833
g4383
aa(lp4834
g4383
aa(lp4835
g4495
aa(lp4836
g4495
aa(lp4837
g4388
aa(lp4838
g4390
aa(lp4839
g4390
aa(lp4840
(lp4841
F3676.8
aF1583.04
aaa(lp4842
g4841
aa(lp4843
g4841
aa(lp4844
g4735
ag4736
ag4737
aa(lp4845
g4739
aa(lp4846
g4625
ag4626
aa(lp4847
g4628
aa(lp4848
g4630
aa(lp4849
g4630
aa(lp4850
g4630
aa(lp4851
g4403
ag4404
aa(lp4852
g4403
ag4404
aa(lp4853
(lp4854
F3750.25
aF1808.14
aaa(lp4855
g4515
aa(lp4856
g4515
aa(lp4857
g4408
aa(lp4858
g4519
ag4520
aa(lp4859
(lp4860
F3733.59
aF1912.33
aaa(lp4861
g4860
aa(lp4862
g4645
aa(lp4863
g4645
aa(lp4864
g4645
aa(lp4865
g4645
aa(lp4866
g4645
aa(lp4867
g4651
aa(lp4868
g4651
aa(lp4869
g4651
aa(lp4870
g4651
aa(lp4871
g4536
aa(lp4872
g4536
aa(lp4873
g4536
aa(lp4874
g4536
aa(lp4875
g4536
aa(lp4876
g4536
aa(lp4877
g4769
aa(lp4878
g4769
aa(lp4879
g4769
aa(lp4880
g4769
aa(lp4881
g4435
aa(lp4882
g4435
aa(lp4883
g4435
aa(lp4884
g4435
aa(lp4885
g4547
aa(lp4886
g4547
aa(lp4887
g4547
aa(lp4888
g4547
aa(lp4889
g4672
aa(lp4890
g4672
aa(lp4891
g4330
aa(lp4892
(lp4893
F3765.25
aF2639.1
aaa(lp4894
g4893
aa(lp4895
g4336
aa(lp4896
g4336
aa(lp4897
g4336
aa(lp4898
(lp4899
F3748.95
aF2741.18
aaa(lp4900
g4899
aa(lp4901
g4795
aa(lp4902
g4795
aa(lp4903
g4795
aa(lp4904
g4795
aa(lp4905
(lp4906
F3715.29
aF2951.11
aaa(lp4907
g4906
aa(lp4908
g4906
aa(lp4909
g4906
aa(lp4910
g4906
aa(lp4911
g4462
aa(lp4912
g4806
aa(lp4913
g4806
aa(lp4914
g4806
aa(lp4915
g4806
aa(lp4916
g4806
aa(lp4917
g4581
aa(lp4918
g4581
aa(lp4919
g4581
aa(lp4920
g4584
aa(lp4921
g4584
aa(lp4922
g4475
aa(lp4923
g4475
aa(lp4924
g4475
aa(lp4925
g4475
aa(lp4926
g4365
ag4366
aa(lp4927
g4365
ag4366
aa(lp4928
g4368
aa(lp4929
g4368
aa(lp4930
g4595
aa(lp4931
g4595
aa(lp4932
g4713
aa(lp4933
g4713
aa(lp4934
g4261
ag4262
aa(lp4935
g4261
ag4262
aa(lp4936
g4261
ag4262
aa(lp4937
g4047
aa(lp4938
(lp4939
F3760.33
aF3596.04
aaa(lp4940
g4939
aaa(lp4941
(lp4942
g4383
aa(lp4943
g4383
aa(lp4944
g4495
aa(lp4945
(lp4946
F3700.92
aF1481.53
aaa(lp4947
g4946
aa(lp4948
g4946
aa(lp4949
g4946
aa(lp4950
g4946
aa(lp4951
g4841
aa(lp4952
g4841
aa(lp4953
(lp4954
F3702.62
aF1617.04
aaa(lp4955
g4954
aa(lp4956
g4954
aa(lp4957
g4954
aa(lp4958
g4630
aa(lp4959
(lp4960
F3767.52
aF1703.62
aaa(lp4961
g4960
aa(lp4962
g4960
aa(lp4963
g4854
aa(lp4964
g4854
aa(lp4965
g4854
aa(lp4966
g4515
aa(lp4967
g4860
aa(lp4968
g4860
aa(lp4969
g4860
aa(lp4970
g4860
aa(lp4971
g4645
aa(lp4972
g4645
aa(lp4973
g4645
aa(lp4974
g4645
aa(lp4975
g4645
aa(lp4976
g4651
aa(lp4977
g4651
aa(lp4978
g4651
aa(lp4979
g4651
aa(lp4980
g4651
aa(lp4981
g4536
aa(lp4982
g4536
aa(lp4983
g4536
aa(lp4984
g4536
aa(lp4985
g4536
aa(lp4986
g4769
aa(lp4987
g4769
aa(lp4988
g4769
aa(lp4989
g4769
aa(lp4990
g4435
aa(lp4991
g4435
aa(lp4992
g4435
aa(lp4993
g4435
aa(lp4994
g4547
aa(lp4995
g4547
aa(lp4996
g4547
aa(lp4997
(lp4998
F3781.02
aF2541.36
aaa(lp4999
g4672
aa(lp5000
g4672
aa(lp5001
g4893
aa(lp5002
g4893
aa(lp5003
g4893
aa(lp5004
g4893
aa(lp5005
g4899
aa(lp5006
g4899
aa(lp5007
g4899
aa(lp5008
g4899
aa(lp5009
g4795
aa(lp5010
g4795
aa(lp5011
g4795
aa(lp5012
g4795
aa(lp5013
g4906
aa(lp5014
g4906
aa(lp5015
g4906
aa(lp5016
g4906
aa(lp5017
g4906
aa(lp5018
g4906
aa(lp5019
g4806
aa(lp5020
g4806
aa(lp5021
g4806
aa(lp5022
g4806
aa(lp5023
g4806
aa(lp5024
g4581
aa(lp5025
g4581
aa(lp5026
g4581
aa(lp5027
g4584
aa(lp5028
g4584
aa(lp5029
g4475
aa(lp5030
g4475
aa(lp5031
g4475
aa(lp5032
g4475
aa(lp5033
g4365
ag4366
aa(lp5034
g4365
ag4366
aa(lp5035
g4368
aa(lp5036
(lp5037
F3793.2
aF3390.54
aaa(lp5038
g4595
aa(lp5039
g4595
aa(lp5040
g4713
aa(lp5041
(lp5042
F3776.89
aF3492.74
aaa(lp5043
g5042
aa(lp5044
g4261
ag4262
aa(lp5045
g4939
aa(lp5046
g4939
aa(lp5047
g4939
aa(lp5048
g4939
aaa(lp5049
(lp5050
(lp5051
F3744.12
aF1382.04
aaa(lp5052
g5051
aa(lp5053
g5051
aa(lp5054
(lp5055
F3727.64
aF1484.67
aaa(lp5056
g5055
aa(lp5057
g5055
aa(lp5058
g5055
aa(lp5059
g5055
aa(lp5060
(lp5061
F3726.53
aF1597.64
aa(lp5062
F3728.03
aF1591.68
aa(lp5063
F3743.67
aF1599.54
aaa(lp5064
g5061
ag5062
ag5063
aa(lp5065
g5061
ag5062
ag5063
aa(lp5066
(lp5067
F3732.06
aF1614.78
aaa(lp5068
g5067
aa(lp5069
g5067
aa(lp5070
g4960
aa(lp5071
g4960
aa(lp5072
g4960
aa(lp5073
g4960
aa(lp5074
g4854
aa(lp5075
g4854
aa(lp5076
g4854
aa(lp5077
g4860
aa(lp5078
g4860
aa(lp5079
g4860
aa(lp5080
g4860
aa(lp5081
g4860
aa(lp5082
g4860
aa(lp5083
g4645
aa(lp5084
g4645
aa(lp5085
g4645
aa(lp5086
g4645
aa(lp5087
g4651
aa(lp5088
g4651
aa(lp5089
g4651
aa(lp5090
g4651
aa(lp5091
g4651
aa(lp5092
g4536
aa(lp5093
g4536
aa(lp5094
g4536
aa(lp5095
g4536
aa(lp5096
g4536
aa(lp5097
g4769
aa(lp5098
g4769
aa(lp5099
(lp5100
F3812.31
aF2345.77
aaa(lp5101
g5100
aa(lp5102
g4435
aa(lp5103
g4435
aa(lp5104
(lp5105
F3796.71
aF2443.4
aaa(lp5106
g5105
aa(lp5107
g4998
aa(lp5108
g4998
aa(lp5109
g4998
aa(lp5110
g4998
aa(lp5111
g4998
aa(lp5112
g4893
aa(lp5113
g4893
aa(lp5114
g4893
aa(lp5115
g4893
aa(lp5116
g4893
aa(lp5117
g4899
aa(lp5118
g4899
aa(lp5119
g4899
aa(lp5120
g4899
aa(lp5121
g4795
aa(lp5122
g4795
aa(lp5123
g4795
aa(lp5124
g4795
aa(lp5125
g4795
aa(lp5126
g4906
aa(lp5127
g4906
aa(lp5128
g4906
aa(lp5129
g4906
aa(lp5130
g4906
aa(lp5131
g4806
aa(lp5132
g4806
aa(lp5133
g4806
aa(lp5134
g4806
aa(lp5135
g4806
aa(lp5136
g4581
aa(lp5137
g4581
aa(lp5138
g4581
aa(lp5139
g4584
aa(lp5140
(lp5141
F3768.5
aF3214.09
aaa(lp5142
g5141
aa(lp5143
g4475
aa(lp5144
(lp5145
F3810.11
aF3285.25
aaa(lp5146
g5145
aa(lp5147
(lp5148
F3793.91
aF3385.68
aa(lp5149
F3794.78
aF3379.7
aaa(lp5150
g5148
ag5149
aa(lp5151
g5148
ag5149
aa(lp5152
g5037
aa(lp5153
g5037
aa(lp5154
g5037
aa(lp5155
g5042
aa(lp5156
g5042
aa(lp5157
g5042
aa(lp5158
g4939
aa(lp5159
g4939
aa(lp5160
g4939
aa(lp5161
g4939
aa(lp5162
g4939
aaa(lp5163
(lp5164
g5051
aa(lp5165
g5051
aa(lp5166
g5051
aa(lp5167
g5055
aa(lp5168
g5055
aa(lp5169
g5055
aa(lp5170
g5055
aa(lp5171
g5055
aa(lp5172
(lp5173
F3767.04
aF1602.56
aaa(lp5174
g5173
aa(lp5175
g5173
aa(lp5176
g5067
aa(lp5177
g5067
aa(lp5178
g4960
aa(lp5179
g4960
aa(lp5180
g4960
aa(lp5181
g4960
aa(lp5182
g4960
aa(lp5183
g4854
aa(lp5184
g4854
aa(lp5185
g4854
aa(lp5186
g4854
aa(lp5187
g4860
aa(lp5188
g4860
aa(lp5189
g4860
aa(lp5190
g4860
aa(lp5191
g4860
aa(lp5192
g4645
aa(lp5193
g4645
aa(lp5194
g4645
aa(lp5195
g4645
aa(lp5196
g4651
aa(lp5197
g4651
aa(lp5198
g4651
aa(lp5199
g4651
aa(lp5200
g4651
aa(lp5201
g4536
aa(lp5202
g4536
aa(lp5203
g4536
aa(lp5204
(lp5205
F3827.99
aF2247.92
aaa(lp5206
g5205
aa(lp5207
g5100
aa(lp5208
g5100
aa(lp5209
g5100
aa(lp5210
g5100
aa(lp5211
g5100
aa(lp5212
g5105
aa(lp5213
g5105
aa(lp5214
g5105
aa(lp5215
g4998
aa(lp5216
g4998
aa(lp5217
g4998
aa(lp5218
g4998
aa(lp5219
g4998
aa(lp5220
g4893
aa(lp5221
g4893
aa(lp5222
g4893
aa(lp5223
g4893
aa(lp5224
g4893
aa(lp5225
g4899
aa(lp5226
g4899
aa(lp5227
g4899
aa(lp5228
g4899
aa(lp5229
g4899
aa(lp5230
g4795
aa(lp5231
g4795
aa(lp5232
g4795
aa(lp5233
g4795
aa(lp5234
g4906
aa(lp5235
g4906
aa(lp5236
g4906
aa(lp5237
g4906
aa(lp5238
g4906
aa(lp5239
g4806
aa(lp5240
g4806
aa(lp5241
g4806
aa(lp5242
(lp5243
F3843.25
aF3078.1
aaa(lp5244
g5243
aa(lp5245
g4581
aa(lp5246
g4581
aa(lp5247
g5141
aa(lp5248
g5141
aa(lp5249
g5141
aa(lp5250
g5141
aa(lp5251
g5141
aa(lp5252
g5145
aa(lp5253
g5145
aa(lp5254
g5148
ag5149
aa(lp5255
g5148
ag5149
aa(lp5256
g5148
ag5149
aa(lp5257
g5037
aa(lp5258
g5037
aa(lp5259
g5037
aa(lp5260
g5042
aa(lp5261
g5042
aa(lp5262
g5042
aa(lp5263
g4939
aa(lp5264
g4939
aa(lp5265
g4939
aa(lp5266
g4939
aa(lp5267
g4939
aaa(lp5268
(lp5269
g5051
aa(lp5270
g5051
aa(lp5271
g5051
aa(lp5272
g5055
aa(lp5273
g5055
aa(lp5274
g5055
aa(lp5275
g5055
aa(lp5276
(lp5277
F3780.05
aF1604.48
aaa(lp5278
g5277
aa(lp5279
g5277
aa(lp5280
g5277
aa(lp5281
(lp5282
F3787.07
aF1623.08
aaa(lp5283
g5282
aa(lp5284
g5282
aa(lp5285
g4960
aa(lp5286
g4960
aa(lp5287
g4960
aa(lp5288
(lp5289
F3796.14
aF1765.33
aaa(lp5290
g4854
aa(lp5291
g4854
aa(lp5292
g4854
aa(lp5293
g4854
aa(lp5294
g4860
aa(lp5295
g4860
aa(lp5296
g4860
aa(lp5297
g4860
aa(lp5298
g4860
aa(lp5299
g4645
aa(lp5300
g4645
aa(lp5301
g4645
aa(lp5302
(lp5303
F3861.48
aF2038.65
aaa(lp5304
g5303
aa(lp5305
g4651
aa(lp5306
g4651
aa(lp5307
(lp5308
F3844.47
aF2145.06
aaa(lp5309
g5308
aa(lp5310
g5205
aa(lp5311
g5205
aa(lp5312
g5205
aa(lp5313
g5205
aa(lp5314
g5205
aa(lp5315
g5100
aa(lp5316
g5100
aa(lp5317
g5100
aa(lp5318
g5100
aa(lp5319
g5100
aa(lp5320
g5105
aa(lp5321
g5105
aa(lp5322
g5105
aa(lp5323
g4998
aa(lp5324
g4998
aa(lp5325
g4998
aa(lp5326
g4998
aa(lp5327
g4998
aa(lp5328
g4998
aa(lp5329
g4893
aa(lp5330
g4893
aa(lp5331
g4893
aa(lp5332
g4893
aa(lp5333
g4899
aa(lp5334
g4899
aa(lp5335
g4899
aa(lp5336
g4899
aa(lp5337
g4899
aa(lp5338
g4795
aa(lp5339
g4795
aa(lp5340
g4795
aa(lp5341
g4795
aa(lp5342
g4906
aa(lp5343
g4906
aa(lp5344
g4906
aa(lp5345
(lp5346
F3859.9
aF2974.35
aaa(lp5347
g5346
aa(lp5348
g5243
aa(lp5349
g5243
aa(lp5350
g5243
aa(lp5351
g5243
aa(lp5352
g5243
aa(lp5353
g5243
aa(lp5354
(lp5355
F3826.68
aF3181.84
aaa(lp5356
g5355
aa(lp5357
g5141
aa(lp5358
g5141
aa(lp5359
g5141
aa(lp5360
g5145
aa(lp5361
g5145
aa(lp5362
g5145
aa(lp5363
g5148
ag5149
aa(lp5364
g5148
ag5149
aa(lp5365
g5148
ag5149
aa(lp5366
g5037
aa(lp5367
g5037
aa(lp5368
g5037
aa(lp5369
g5042
aa(lp5370
g5042
aa(lp5371
g5042
aa(lp5372
g5042
aa(lp5373
g4939
aa(lp5374
g4939
aa(lp5375
g4939
aa(lp5376
g4939
aaa(lp5377
(lp5378
g5051
aa(lp5379
(lp5380
F3851.68
aF1400.28
aaa(lp5381
g5380
aa(lp5382
g5380
aa(lp5383
g5055
aa(lp5384
g5055
aa(lp5385
g5055
aa(lp5386
g5277
aa(lp5387
g5277
aa(lp5388
g5277
aa(lp5389
g5277
aa(lp5390
g5282
aa(lp5391
g5282
aa(lp5392
g5282
aa(lp5393
(lp5394
F3834.39
aF1715.0
aaa(lp5395
g5394
aa(lp5396
g5289
aa(lp5397
g5289
aa(lp5398
g5289
aa(lp5399
g4854
aa(lp5400
g4854
aa(lp5401
g4854
aa(lp5402
g4860
aa(lp5403
g4860
aa(lp5404
g4860
aa(lp5405
(lp5406
F3877.96
aF1935.68
aaa(lp5407
g5406
aa(lp5408
g4645
aa(lp5409
g4645
aa(lp5410
g5303
aa(lp5411
g5303
aa(lp5412
g5303
aa(lp5413
g5303
aa(lp5414
g5308
aa(lp5415
g5308
aa(lp5416
g5308
aa(lp5417
g5205
aa(lp5418
g5205
aa(lp5419
g5205
aa(lp5420
g5205
aa(lp5421
g5205
aa(lp5422
g5100
aa(lp5423
g5100
aa(lp5424
g5100
aa(lp5425
g5100
aa(lp5426
g5100
aa(lp5427
g5105
aa(lp5428
g5105
aa(lp5429
g5105
aa(lp5430
g5105
aa(lp5431
g4998
aa(lp5432
g4998
aa(lp5433
g4998
aa(lp5434
g4998
aa(lp5435
g4998
aa(lp5436
g4893
aa(lp5437
g4893
aa(lp5438
g4893
aa(lp5439
g4893
aa(lp5440
g4899
aa(lp5441
g4899
aa(lp5442
g4899
aa(lp5443
g4899
aa(lp5444
g4899
aa(lp5445
g4795
aa(lp5446
g4795
aa(lp5447
(lp5448
F3876.38
aF2871.05
aaa(lp5449
g5448
aa(lp5450
g5346
aa(lp5451
g5346
aa(lp5452
g5346
aa(lp5453
g5346
aa(lp5454
g5346
aa(lp5455
g5243
aa(lp5456
g5243
aa(lp5457
g5243
aa(lp5458
g5243
aa(lp5459
g5243
aa(lp5460
g5243
aa(lp5461
g5355
aa(lp5462
g5355
aa(lp5463
g5355
aa(lp5464
(lp5465
F3819.98
aF3223.65
aaa(lp5466
g5145
aa(lp5467
g5145
aa(lp5468
g5145
aa(lp5469
g5145
aa(lp5470
g5145
aa(lp5471
g5148
ag5149
aa(lp5472
g5148
ag5149
aa(lp5473
g5037
aa(lp5474
g5037
aa(lp5475
g5037
aa(lp5476
g5042
aa(lp5477
g5042
aa(lp5478
g5042
aa(lp5479
g5042
aa(lp5480
g4939
aa(lp5481
g4939
aa(lp5482
g4939
aa(lp5483
g4939
aaa(lp5484
(lp5485
g5380
aa(lp5486
g5380
aa(lp5487
g5380
aa(lp5488
g5380
aa(lp5489
g5380
aa(lp5490
g5055
aa(lp5491
g5055
aa(lp5492
(lp5493
F3830.83
aF1630.9
aaa(lp5494
g5493
aa(lp5495
g5493
aa(lp5496
g5493
aa(lp5497
g5493
aa(lp5498
g5493
aa(lp5499
g5493
aa(lp5500
g5394
aa(lp5501
g5394
aa(lp5502
g5394
aa(lp5503
g5289
aa(lp5504
g5289
aa(lp5505
g4854
aa(lp5506
(lp5507
F3894.62
aF1831.38
aaa(lp5508
g5507
aa(lp5509
g5406
aa(lp5510
g5406
aa(lp5511
g5406
aa(lp5512
g5406
aa(lp5513
g5406
aa(lp5514
g5303
aa(lp5515
g5303
aa(lp5516
g5303
aa(lp5517
g5303
aa(lp5518
g5303
aa(lp5519
g5303
aa(lp5520
g5308
aa(lp5521
g5308
aa(lp5522
g5308
aa(lp5523
g5205
aa(lp5524
g5205
aa(lp5525
g5205
aa(lp5526
g5205
aa(lp5527
g5205
aa(lp5528
g5205
aa(lp5529
g5100
aa(lp5530
g5100
aa(lp5531
g5100
aa(lp5532
g5100
aa(lp5533
g5105
aa(lp5534
g5105
aa(lp5535
g5105
aa(lp5536
g5105
aa(lp5537
g4998
aa(lp5538
g4998
aa(lp5539
g4998
aa(lp5540
g4998
aa(lp5541
g4998
aa(lp5542
g4893
aa(lp5543
g4893
aa(lp5544
(lp5545
F3909.78
aF2662.45
aaa(lp5546
g5545
aa(lp5547
g4899
aa(lp5548
g4899
aa(lp5549
g4899
aa(lp5550
(lp5551
F3893.83
aF2766.14
aaa(lp5552
g5551
aa(lp5553
g5448
aa(lp5554
g5448
aa(lp5555
g5448
aa(lp5556
g5448
aa(lp5557
g5346
aa(lp5558
g5346
aa(lp5559
g5346
aa(lp5560
g5346
aa(lp5561
g5346
aa(lp5562
g5243
aa(lp5563
g5243
aa(lp5564
g5243
aa(lp5565
g5243
aa(lp5566
g5243
aa(lp5567
g5243
aa(lp5568
g5355
aa(lp5569
g5355
aa(lp5570
g5355
aa(lp5571
g5465
aa(lp5572
g5465
aa(lp5573
g5145
aa(lp5574
g5145
aa(lp5575
g5145
aa(lp5576
g5145
aa(lp5577
g5148
ag5149
aa(lp5578
g5148
ag5149
aa(lp5579
g5037
aa(lp5580
g5037
aa(lp5581
g5037
aa(lp5582
g5042
aa(lp5583
g5042
aa(lp5584
g5042
aa(lp5585
g5042
aa(lp5586
g4939
aa(lp5587
g4939
aa(lp5588
g4939
aa(lp5589
(lp5590
F3904.84
aF3619.17
aaaa(lp5591
(lp5592
g5380
aa(lp5593
g5380
aa(lp5594
g5380
aa(lp5595
g5380
aa(lp5596
g5380
aa(lp5597
g5380
aa(lp5598
g5380
aa(lp5599
(lp5600
F3939.58
aF1548.22
aaa(lp5601
g5600
aa(lp5602
g5493
aa(lp5603
g5493
aa(lp5604
g5493
aa(lp5605
g5493
aa(lp5606
(lp5607
F3847.13
aF1717.16
aaa(lp5608
g5607
aa(lp5609
g5607
aa(lp5610
g5607
aa(lp5611
g5289
aa(lp5612
(lp5613
F3901.94
aF1783.66
aaa(lp5614
g5613
aa(lp5615
g5507
aa(lp5616
g5507
aa(lp5617
g5406
aa(lp5618
g5406
aa(lp5619
g5406
aa(lp5620
g5406
aa(lp5621
g5406
aa(lp5622
g5303
aa(lp5623
g5303
aa(lp5624
g5303
aa(lp5625
g5303
aa(lp5626
g5303
aa(lp5627
g5303
aa(lp5628
g5308
aa(lp5629
g5308
aa(lp5630
g5308
aa(lp5631
g5308
aa(lp5632
g5205
aa(lp5633
g5205
aa(lp5634
g5205
aa(lp5635
g5205
aa(lp5636
g5205
aa(lp5637
g5100
aa(lp5638
g5100
aa(lp5639
g5100
aa(lp5640
g5100
aa(lp5641
g5105
aa(lp5642
g5105
aa(lp5643
(lp5644
F3916.03
aF2462.51
aaa(lp5645
g5644
aa(lp5646
g5644
aa(lp5647
g4998
aa(lp5648
g4998
aa(lp5649
(lp5650
F3925.29
aF2564.6
aaa(lp5651
g5650
aa(lp5652
g5545
aa(lp5653
g5545
aa(lp5654
g5545
aa(lp5655
g5545
aa(lp5656
g5545
aa(lp5657
g5551
aa(lp5658
g5551
aa(lp5659
g5551
aa(lp5660
g5551
aa(lp5661
g5448
aa(lp5662
g5448
aa(lp5663
g5448
aa(lp5664
g5448
aa(lp5665
g5346
aa(lp5666
g5346
aa(lp5667
g5346
aa(lp5668
g5346
aa(lp5669
g5346
aa(lp5670
g5346
aa(lp5671
g5243
aa(lp5672
g5243
aa(lp5673
g5243
aa(lp5674
g5243
aa(lp5675
g5243
aa(lp5676
g5355
aa(lp5677
g5355
aa(lp5678
g5355
aa(lp5679
g5465
aa(lp5680
g5465
aa(lp5681
g5145
aa(lp5682
g5145
aa(lp5683
g5145
aa(lp5684
g5145
aa(lp5685
g5148
ag5149
aa(lp5686
g5148
ag5149
aa(lp5687
g5037
aa(lp5688
(lp5689
F3937.45
aF3413.28
aaa(lp5690
g5689
aa(lp5691
g5042
aa(lp5692
g5042
aa(lp5693
(lp5694
F3921.41
aF3515.98
aaa(lp5695
g5694
aa(lp5696
g5590
aa(lp5697
g5590
aa(lp5698
g5590
aa(lp5699
g5590
aaa(lp5700
(lp5701
g5380
aa(lp5702
g5380
aa(lp5703
g5380
aa(lp5704
g5380
aa(lp5705
g5380
aa(lp5706
g5380
aa(lp5707
g5600
aa(lp5708
g5600
aa(lp5709
g5600
aa(lp5710
g5600
aa(lp5711
g5493
aa(lp5712
g5493
aa(lp5713
(lp5714
F3924.41
aF1645.96
aaa(lp5715
g5607
aa(lp5716
g5607
aa(lp5717
g5607
aa(lp5718
(lp5719
F3911.19
aF1728.08
aaa(lp5720
g5719
aa(lp5721
g5613
aa(lp5722
g5613
aa(lp5723
g5507
aa(lp5724
g5507
aa(lp5725
g5406
aa(lp5726
g5406
aa(lp5727
g5406
aa(lp5728
g5406
aa(lp5729
g5406
aa(lp5730
g5406
aa(lp5731
g5303
aa(lp5732
g5303
aa(lp5733
g5303
aa(lp5734
g5303
aa(lp5735
g5303
aa(lp5736
g5308
aa(lp5737
g5308
aa(lp5738
g5308
aa(lp5739
g5308
aa(lp5740
g5205
aa(lp5741
g5205
aa(lp5742
g5205
aa(lp5743
g5205
aa(lp5744
g5205
aa(lp5745
g5100
aa(lp5746
g5100
aa(lp5747
g5100
aa(lp5748
g5644
aa(lp5749
g5644
aa(lp5750
g5644
aa(lp5751
g5644
aa(lp5752
g5644
aa(lp5753
g5644
aa(lp5754
g5644
aa(lp5755
g5650
aa(lp5756
g5650
aa(lp5757
g5650
aa(lp5758
g5545
aa(lp5759
g5545
aa(lp5760
g5545
aa(lp5761
g5545
aa(lp5762
g5545
aa(lp5763
g5551
aa(lp5764
g5551
aa(lp5765
g5551
aa(lp5766
g5551
aa(lp5767
g5448
aa(lp5768
g5448
aa(lp5769
g5448
aa(lp5770
g5448
aa(lp5771
g5448
aa(lp5772
g5346
aa(lp5773
g5346
aa(lp5774
g5346
aa(lp5775
g5346
aa(lp5776
g5346
aa(lp5777
g5243
aa(lp5778
g5243
aa(lp5779
g5243
aa(lp5780
g5243
aa(lp5781
g5243
aa(lp5782
g5355
aa(lp5783
g5355
aa(lp5784
g5355
aa(lp5785
g5465
aa(lp5786
g5465
aa(lp5787
g5145
aa(lp5788
g5145
aa(lp5789
(lp5790
F3953.67
aF3309.24
aaa(lp5791
g5790
aa(lp5792
(lp5793
F3937.86
aF3409.99
aa(lp5794
F3938.77
aF3402.68
aaa(lp5795
g5793
ag5794
aa(lp5796
g5793
ag5794
aa(lp5797
g5689
aa(lp5798
g5689
aa(lp5799
g5689
aa(lp5800
g5694
aa(lp5801
g5694
aa(lp5802
g5694
aa(lp5803
g5590
aa(lp5804
g5590
aa(lp5805
g5590
aa(lp5806
g5590
aaa(lp5807
(lp5808
g5380
aa(lp5809
g5380
aa(lp5810
(lp5811
F3960.91
aF1416.96
aaa(lp5812
g5811
aa(lp5813
g5811
aa(lp5814
g5600
aa(lp5815
g5600
aa(lp5816
g5600
aa(lp5817
g5600
aa(lp5818
g5600
aa(lp5819
(lp5820
F3927.15
aF1627.86
aaa(lp5821
g5820
aa(lp5822
g5714
aa(lp5823
g5714
aa(lp5824
g5719
aa(lp5825
g5719
aa(lp5826
g5719
aa(lp5827
g5719
aa(lp5828
g5613
aa(lp5829
g5613
aa(lp5830
g5507
aa(lp5831
g5507
aa(lp5832
g5507
aa(lp5833
g5406
aa(lp5834
g5406
aa(lp5835
g5406
aa(lp5836
g5406
aa(lp5837
g5406
aa(lp5838
g5303
aa(lp5839
g5303
aa(lp5840
g5303
aa(lp5841
g5303
aa(lp5842
g5303
aa(lp5843
g5308
aa(lp5844
g5308
aa(lp5845
g5308
aa(lp5846
g5308
aa(lp5847
g5205
aa(lp5848
g5205
aa(lp5849
g5205
aa(lp5850
(lp5851
F3964.18
aF2269.72
aaa(lp5852
g5851
aa(lp5853
g5851
aa(lp5854
g5100
aa(lp5855
g5644
aa(lp5856
g5644
aa(lp5857
g5644
aa(lp5858
g5644
aa(lp5859
g5644
aa(lp5860
g5644
aa(lp5861
g5644
aa(lp5862
g5644
aa(lp5863
g5650
aa(lp5864
g5650
aa(lp5865
g5650
aa(lp5866
g5545
aa(lp5867
g5545
aa(lp5868
g5545
aa(lp5869
g5545
aa(lp5870
g5545
aa(lp5871
g5551
aa(lp5872
g5551
aa(lp5873
g5551
aa(lp5874
g5551
aa(lp5875
g5551
aa(lp5876
g5448
aa(lp5877
g5448
aa(lp5878
g5448
aa(lp5879
g5448
aa(lp5880
g5346
aa(lp5881
g5346
aa(lp5882
g5346
aa(lp5883
g5346
aa(lp5884
g5346
aa(lp5885
g5243
aa(lp5886
g5243
aa(lp5887
g5243
aa(lp5888
(lp5889
F3987.24
aF3101.62
aaa(lp5890
g5889
aa(lp5891
g5355
aa(lp5892
g5355
aa(lp5893
(lp5894
F3970.59
aF3205.19
aaa(lp5895
g5465
aa(lp5896
g5465
aa(lp5897
g5790
aa(lp5898
g5790
aa(lp5899
g5790
aa(lp5900
g5790
aa(lp5901
g5793
ag5794
aa(lp5902
g5793
ag5794
aa(lp5903
g5793
ag5794
aa(lp5904
g5689
aa(lp5905
g5689
aa(lp5906
g5689
aa(lp5907
g5694
aa(lp5908
g5694
aa(lp5909
g5694
aa(lp5910
g5590
aa(lp5911
g5590
aa(lp5912
g5590
aa(lp5913
g5590
aaa(lp5914
(lp5915
g5811
aa(lp5916
g5811
aa(lp5917
g5811
aa(lp5918
g5811
aa(lp5919
g5811
aa(lp5920
g5600
aa(lp5921
g5600
aa(lp5922
g5600
aa(lp5923
g5600
aa(lp5924
g5600
aa(lp5925
g5820
aa(lp5926
g5820
aa(lp5927
g5714
aa(lp5928
g5714
aa(lp5929
g5714
aa(lp5930
g5719
aa(lp5931
g5719
aa(lp5932
g5719
aa(lp5933
g5613
aa(lp5934
g5613
aa(lp5935
g5507
aa(lp5936
g5507
aa(lp5937
g5507
aa(lp5938
g5406
aa(lp5939
g5406
aa(lp5940
g5406
aa(lp5941
g5406
aa(lp5942
g5406
aa(lp5943
(lp5944
F4015.19
aF2010.96
aaa(lp5945
g5303
aa(lp5946
g5303
aa(lp5947
(lp5948
F4006.64
aF2062.0
aaa(lp5949
g5948
aa(lp5950
g5308
aa(lp5951
g5308
aa(lp5952
(lp5953
F3989.01
aF2168.3
aaa(lp5954
g5953
aa(lp5955
g5851
aa(lp5956
g5851
aa(lp5957
g5851
aa(lp5958
g5851
aa(lp5959
g5851
aa(lp5960
g5851
aa(lp5961
g5851
aa(lp5962
g5644
aa(lp5963
g5644
aa(lp5964
g5644
aa(lp5965
g5644
aa(lp5966
g5644
aa(lp5967
(lp5968
F3941.07
aF2466.53
aaa(lp5969
g5968
aa(lp5970
g5650
aa(lp5971
g5650
aa(lp5972
g5650
aa(lp5973
g5650
aa(lp5974
g5650
aa(lp5975
g5545
aa(lp5976
g5545
aa(lp5977
g5545
aa(lp5978
g5545
aa(lp5979
g5551
aa(lp5980
g5551
aa(lp5981
g5551
aa(lp5982
g5551
aa(lp5983
g5551
aa(lp5984
g5448
aa(lp5985
g5448
aa(lp5986
g5448
aa(lp5987
g5448
aa(lp5988
g5346
aa(lp5989
g5346
aa(lp5990
g5346
aa(lp5991
(lp5992
F4003.64
aF2997.93
aaa(lp5993
g5992
aa(lp5994
g5889
aa(lp5995
g5889
aa(lp5996
g5889
aa(lp5997
g5889
aa(lp5998
g5889
aa(lp5999
g5889
aa(lp6000
g5894
aa(lp6001
g5894
aa(lp6002
g5894
aa(lp6003
g5790
aa(lp6004
g5790
aa(lp6005
g5790
aa(lp6006
g5790
aa(lp6007
g5790
aa(lp6008
g5793
ag5794
aa(lp6009
g5793
ag5794
aa(lp6010
g5793
ag5794
aa(lp6011
g5689
aa(lp6012
g5689
aa(lp6013
g5689
aa(lp6014
g5694
aa(lp6015
g5694
aa(lp6016
g5694
aa(lp6017
g5694
aa(lp6018
g5590
aa(lp6019
g5590
aa(lp6020
g5590
aaa(lp6021
(lp6022
g5811
aa(lp6023
g5811
aa(lp6024
g5811
aa(lp6025
g5811
aa(lp6026
g5811
aa(lp6027
(lp6028
F3943.72
aF1521.37
aaa(lp6029
g6028
aa(lp6030
g6028
aa(lp6031
g5600
aa(lp6032
g5600
aa(lp6033
g5820
aa(lp6034
g5820
aa(lp6035
g5714
aa(lp6036
g5714
aa(lp6037
g5714
aa(lp6038
g5719
aa(lp6039
g5719
aa(lp6040
g5719
aa(lp6041
g5613
aa(lp6042
g5613
aa(lp6043
g5507
aa(lp6044
g5507
aa(lp6045
g5507
aa(lp6046
g5406
aa(lp6047
g5406
aa(lp6048
g5406
aa(lp6049
(lp6050
F4023.83
aF1959.14
aaa(lp6051
g6050
aa(lp6052
g5944
aa(lp6053
g5948
aa(lp6054
g5948
aa(lp6055
g5948
aa(lp6056
g5948
aa(lp6057
g5948
aa(lp6058
g5953
aa(lp6059
g5953
aa(lp6060
g5953
aa(lp6061
g5851
aa(lp6062
g5851
aa(lp6063
g5851
aa(lp6064
g5851
aa(lp6065
g5851
aa(lp6066
g5851
aa(lp6067
g5851
aa(lp6068
g5851
aa(lp6069
g5968
aa(lp6070
g5968
aa(lp6071
g5968
aa(lp6072
g5968
aa(lp6073
g5968
aa(lp6074
g5968
aa(lp6075
g5968
aa(lp6076
g5650
aa(lp6077
g5650
aa(lp6078
g5650
aa(lp6079
g5650
aa(lp6080
g5545
aa(lp6081
g5545
aa(lp6082
g5545
aa(lp6083
(lp6084
F4001.66
aF2721.62
aaa(lp6085
g6084
aa(lp6086
g5551
aa(lp6087
g5551
aa(lp6088
g5551
aa(lp6089
g5551
aa(lp6090
g5448
aa(lp6091
g5448
aa(lp6092
g5448
aa(lp6093
(lp6094
F4019.94
aF2894.35
aaa(lp6095
g6094
aa(lp6096
g5992
aa(lp6097
g5992
aa(lp6098
g5992
aa(lp6099
g5992
aa(lp6100
g5889
aa(lp6101
g5889
aa(lp6102
g5889
aa(lp6103
g5889
aa(lp6104
g5889
aa(lp6105
g5889
aa(lp6106
g5894
aa(lp6107
g5894
aa(lp6108
g5894
aa(lp6109
g5790
aa(lp6110
g5790
aa(lp6111
g5790
aa(lp6112
g5790
aa(lp6113
g5790
aa(lp6114
g5790
aa(lp6115
g5793
ag5794
aa(lp6116
g5793
ag5794
aa(lp6117
g5689
aa(lp6118
g5689
aa(lp6119
g5689
aa(lp6120
g5694
aa(lp6121
g5694
aa(lp6122
g5694
aa(lp6123
g5694
aa(lp6124
g5590
aa(lp6125
g5590
aa(lp6126
g5590
aaa(lp6127
(lp6128
g5811
aa(lp6129
g5811
aa(lp6130
g5811
aa(lp6131
g5811
aa(lp6132
g5811
aa(lp6133
g6028
aa(lp6134
g6028
aa(lp6135
g6028
aa(lp6136
g5600
aa(lp6137
g5600
aa(lp6138
g5820
aa(lp6139
g5820
aa(lp6140
g5714
aa(lp6141
g5714
aa(lp6142
g5714
aa(lp6143
g5719
aa(lp6144
g5719
aa(lp6145
(lp6146
F4060.49
aF1751.73
aaa(lp6147
g5613
aa(lp6148
g5613
aa(lp6149
g5507
aa(lp6150
(lp6151
F4041.28
aF1854.95
aa(lp6152
F4042.16
aF1844.82
aa(lp6153
F4049.72
aF1845.58
aaa(lp6154
g6151
ag6152
ag6153
aa(lp6155
g6050
aa(lp6156
g6050
aa(lp6157
g6050
aa(lp6158
g6050
aa(lp6159
g6050
aa(lp6160
g5944
aa(lp6161
g5948
aa(lp6162
g5948
aa(lp6163
g5948
aa(lp6164
g5948
aa(lp6165
g5948
aa(lp6166
g5953
aa(lp6167
g5953
aa(lp6168
g5953
aa(lp6169
(lp6170
F3972.44
aF2271.05
aaa(lp6171
g6170
aa(lp6172
g6170
aa(lp6173
g6170
aa(lp6174
g6170
aa(lp6175
g6170
aa(lp6176
g6170
aa(lp6177
g6170
aa(lp6178
g5968
aa(lp6179
g5968
aa(lp6180
g5968
aa(lp6181
g5968
aa(lp6182
g5968
aa(lp6183
g5968
aa(lp6184
g5968
aa(lp6185
g5650
aa(lp6186
g5650
aa(lp6187
g5650
aa(lp6188
g5650
aa(lp6189
g5545
aa(lp6190
g5545
aa(lp6191
g6084
aa(lp6192
g6084
aa(lp6193
g6084
aa(lp6194
g6084
aa(lp6195
g5551
aa(lp6196
(lp6197
F4037.22
aF2788.41
aaa(lp6198
g6197
aa(lp6199
g5448
aa(lp6200
g5448
aa(lp6201
g6094
aa(lp6202
g6094
aa(lp6203
g6094
aa(lp6204
g5992
aa(lp6205
g5992
aa(lp6206
g5992
aa(lp6207
g5992
aa(lp6208
g5889
aa(lp6209
g5889
aa(lp6210
g5889
aa(lp6211
g5889
aa(lp6212
g5889
aa(lp6213
g5889
aa(lp6214
g5894
aa(lp6215
g5894
aa(lp6216
g5894
aa(lp6217
g5894
aa(lp6218
g5790
aa(lp6219
g5790
aa(lp6220
g5790
aa(lp6221
g5790
aa(lp6222
g5790
aa(lp6223
g5793
ag5794
aa(lp6224
g5793
ag5794
aa(lp6225
g5689
aa(lp6226
g5689
aa(lp6227
g5689
aa(lp6228
g5694
aa(lp6229
g5694
aa(lp6230
g5694
aa(lp6231
g5694
aa(lp6232
g5590
aa(lp6233
g5590
aa(lp6234
g5590
aaa(lp6235
(lp6236
g5811
aa(lp6237
g5811
aa(lp6238
g5811
aa(lp6239
g5811
aa(lp6240
g5811
aa(lp6241
g6028
aa(lp6242
g6028
aa(lp6243
g6028
aa(lp6244
g5600
aa(lp6245
g5600
aa(lp6246
g5820
aa(lp6247
g5820
aa(lp6248
g5714
aa(lp6249
g5714
aa(lp6250
g5714
aa(lp6251
g6146
aa(lp6252
g6146
aa(lp6253
g6146
aa(lp6254
(lp6255
F4055.02
aF1786.75
aa(lp6256
F4059.59
aF1787.5
aaa(lp6257
g6255
ag6256
aa(lp6258
g6151
ag6152
ag6153
aa(lp6259
g6151
ag6152
ag6153
aa(lp6260
g6151
ag6152
ag6153
aa(lp6261
g6050
aa(lp6262
g6050
aa(lp6263
g6050
aa(lp6264
g6050
aa(lp6265
g6050
aa(lp6266
g5944
aa(lp6267
g5948
aa(lp6268
g5948
aa(lp6269
g5948
aa(lp6270
g5948
aa(lp6271
g5948
aa(lp6272
g5953
aa(lp6273
g5953
aa(lp6274
g5953
aa(lp6275
g5953
aa(lp6276
g6170
aa(lp6277
g6170
aa(lp6278
g6170
aa(lp6279
g6170
aa(lp6280
g6170
aa(lp6281
g6170
aa(lp6282
g6170
aa(lp6283
(lp6284
F4101.38
aF2392.25
aaa(lp6285
g5968
aa(lp6286
g5968
aa(lp6287
g5968
aa(lp6288
g5968
aa(lp6289
g5968
aa(lp6290
g5968
aa(lp6291
g5650
aa(lp6292
g5650
aa(lp6293
(lp6294
F4067.45
aF2599.86
aa(lp6295
F4070.79
aF2587.84
aaa(lp6296
g6294
ag6295
aa(lp6297
g6084
aa(lp6298
g6084
aa(lp6299
g6084
aa(lp6300
g6084
aa(lp6301
g6084
aa(lp6302
g6084
aa(lp6303
g6084
aa(lp6304
g6197
aa(lp6305
g6197
aa(lp6306
g6094
aa(lp6307
g6094
aa(lp6308
g6094
aa(lp6309
g6094
aa(lp6310
g6094
aa(lp6311
g5992
aa(lp6312
g5992
aa(lp6313
g5992
aa(lp6314
g5992
aa(lp6315
g5992
aa(lp6316
g5889
aa(lp6317
g5889
aa(lp6318
g5889
aa(lp6319
g5889
aa(lp6320
g5889
aa(lp6321
g5894
aa(lp6322
g5894
aa(lp6323
g5894
aa(lp6324
g5894
aa(lp6325
(lp6326
F4029.93
aF3320.61
aaa(lp6327
g6326
aa(lp6328
g6326
aa(lp6329
g6326
aa(lp6330
g6326
aa(lp6331
(lp6332
F4049.58
aF3370.21
aaa(lp6333
g5793
ag5794
aa(lp6334
g5689
aa(lp6335
(lp6336
F4081.79
aF3436.92
aaa(lp6337
g6336
aa(lp6338
g5694
aa(lp6339
g5694
aa(lp6340
(lp6341
F4065.93
aF3539.22
aaa(lp6342
g6341
aa(lp6343
g6341
aa(lp6344
g5590
aa(lp6345
g5590
aaa(lp6346
(lp6347
g5811
aa(lp6348
g5811
aa(lp6349
g5811
aa(lp6350
g5811
aa(lp6351
g5811
aa(lp6352
(lp6353
F4070.96
aF1541.38
aaa(lp6354
g6353
aa(lp6355
g6353
aa(lp6356
(lp6357
F4076.32
aF1544.72
aa(lp6358
F4077.72
aF1550.84
aaa(lp6359
g6357
ag6358
aa(lp6360
g6357
ag6358
aa(lp6361
(lp6362
F4062.12
aF1649.73
aaa(lp6363
g6362
aa(lp6364
g6362
aa(lp6365
g6146
aa(lp6366
g6146
aa(lp6367
g6146
aa(lp6368
g6146
aa(lp6369
g6255
ag6256
aa(lp6370
g6255
ag6256
aa(lp6371
g6151
ag6152
ag6153
aa(lp6372
g6151
ag6152
ag6153
aa(lp6373
g6151
ag6152
ag6153
aa(lp6374
g6050
aa(lp6375
g6050
aa(lp6376
g6050
aa(lp6377
g6050
aa(lp6378
g6050
aa(lp6379
g5944
aa(lp6380
g5944
aa(lp6381
g5948
aa(lp6382
g5948
aa(lp6383
g5948
aa(lp6384
g5948
aa(lp6385
g5953
aa(lp6386
g5953
aa(lp6387
g5953
aa(lp6388
g5953
aa(lp6389
g6170
aa(lp6390
g6170
aa(lp6391
g6170
aa(lp6392
g6170
aa(lp6393
g6170
aa(lp6394
g6170
aa(lp6395
g6284
aa(lp6396
g6284
aa(lp6397
g6284
aa(lp6398
g5968
aa(lp6399
g5968
aa(lp6400
g5968
aa(lp6401
(lp6402
F4085.33
aF2505.71
aa(lp6403
F4086.13
aF2490.27
aaa(lp6404
(lp6405
F4073.87
aF2578.3
aaa(lp6406
g6405
aa(lp6407
g6405
aa(lp6408
g6294
ag6295
aa(lp6409
g6294
ag6295
aa(lp6410
(lp6411
F4053.43
aF2686.0
aaa(lp6412
g6411
aa(lp6413
g6411
aa(lp6414
g6084
aa(lp6415
g6084
aa(lp6416
g6084
aa(lp6417
g6197
aa(lp6418
g6197
aa(lp6419
g6197
aa(lp6420
g6094
aa(lp6421
g6094
aa(lp6422
g6094
aa(lp6423
g6094
aa(lp6424
g6094
aa(lp6425
g6094
aa(lp6426
g5992
aa(lp6427
g5992
aa(lp6428
g5992
aa(lp6429
g5992
aa(lp6430
g5889
aa(lp6431
g5889
aa(lp6432
g5889
aa(lp6433
g5889
aa(lp6434
g5889
aa(lp6435
g5894
aa(lp6436
g5894
aa(lp6437
(lp6438
F4043.77
aF3216.76
aaa(lp6439
g6438
aa(lp6440
g6326
aa(lp6441
g6326
aa(lp6442
g6326
aa(lp6443
g6326
aa(lp6444
g6326
aa(lp6445
g6332
aa(lp6446
g6332
aa(lp6447
(lp6448
F4082.1
aF3434.34
aa(lp6449
F4083.12
aF3425.87
aaa(lp6450
g6336
aa(lp6451
g6336
aa(lp6452
g6336
aa(lp6453
g6341
aa(lp6454
g6341
aa(lp6455
g6341
aa(lp6456
g6341
aa(lp6457
g6341
aa(lp6458
g5590
aaa(lp6459
(lp6460
g5811
aa(lp6461
g5811
aa(lp6462
g5811
aa(lp6463
g5811
aa(lp6464
g6353
aa(lp6465
g6353
aa(lp6466
g6353
aa(lp6467
g6353
aa(lp6468
g6357
ag6358
aa(lp6469
g6357
ag6358
aa(lp6470
g6357
ag6358
aa(lp6471
g6362
aa(lp6472
g6362
aa(lp6473
g6362
aa(lp6474
g6146
aa(lp6475
g6146
aa(lp6476
g6146
aa(lp6477
g6146
aa(lp6478
g6255
ag6256
aa(lp6479
g6255
ag6256
aa(lp6480
g6151
ag6152
ag6153
aa(lp6481
g6151
ag6152
ag6153
aa(lp6482
g6151
ag6152
ag6153
aa(lp6483
g6151
ag6152
ag6153
aa(lp6484
g6050
aa(lp6485
g6050
aa(lp6486
g6050
aa(lp6487
g6050
aa(lp6488
g5944
aa(lp6489
g5944
aa(lp6490
g5948
aa(lp6491
g5948
aa(lp6492
g5948
aa(lp6493
g5948
aa(lp6494
g5953
aa(lp6495
g5953
aa(lp6496
g5953
aa(lp6497
g5953
aa(lp6498
g6170
aa(lp6499
g6170
aa(lp6500
g6170
aa(lp6501
(lp6502
F4116.63
aF2295.26
aaa(lp6503
g6502
aa(lp6504
g6284
aa(lp6505
g6284
aa(lp6506
g6284
aa(lp6507
g6284
aa(lp6508
g6284
aa(lp6509
(lp6510
F4087.19
aF2475.65
aaa(lp6511
g6510
aa(lp6512
g6402
ag6403
aa(lp6513
g6405
aa(lp6514
g6405
aa(lp6515
g6405
aa(lp6516
g6294
ag6295
aa(lp6517
g6294
ag6295
aa(lp6518
g6411
aa(lp6519
g6411
aa(lp6520
g6411
aa(lp6521
g6411
aa(lp6522
(lp6523
F4046.65
aF2729.49
aaa(lp6524
g6523
aa(lp6525
g6197
aa(lp6526
g6197
aa(lp6527
g6197
aa(lp6528
g6197
aa(lp6529
g6094
aa(lp6530
g6094
aa(lp6531
g6094
aa(lp6532
g6094
aa(lp6533
g6094
aa(lp6534
g5992
aa(lp6535
g5992
aa(lp6536
g5992
aa(lp6537
g5992
aa(lp6538
g5889
aa(lp6539
g5889
aa(lp6540
g5889
aa(lp6541
(lp6542
F4132.12
aF3124.69
aaa(lp6543
g6438
aa(lp6544
g6438
aa(lp6545
g6438
aa(lp6546
g6438
aa(lp6547
g6438
aa(lp6548
g6438
aa(lp6549
g6326
aa(lp6550
g6326
aa(lp6551
(lp6552
F4055.75
aF3324.73
aaa(lp6553
g6552
aa(lp6554
g6332
aa(lp6555
g6332
aa(lp6556
g6448
ag6449
aa(lp6557
g6336
aa(lp6558
g6336
aa(lp6559
g6336
aa(lp6560
g6341
aa(lp6561
g6341
aa(lp6562
g6341
aa(lp6563
g6341
aa(lp6564
g6341
aa(lp6565
g6341
aaa(lp6566
(lp6567
g5811
aa(lp6568
g5811
aa(lp6569
g5811
aa(lp6570
g6353
aa(lp6571
g6353
aa(lp6572
g6353
aa(lp6573
g6353
aa(lp6574
g6353
aa(lp6575
g6357
ag6358
aa(lp6576
g6357
ag6358
aa(lp6577
g6357
ag6358
aa(lp6578
g6362
aa(lp6579
g6362
aa(lp6580
g6362
aa(lp6581
g6362
aa(lp6582
(lp6583
F4077.53
aF1754.43
aaa(lp6584
g6583
aa(lp6585
g6583
aa(lp6586
g6255
ag6256
aa(lp6587
g6255
ag6256
aa(lp6588
g6151
ag6152
ag6153
aa(lp6589
g6151
ag6152
ag6153
aa(lp6590
g6151
ag6152
ag6153
aa(lp6591
g6151
ag6152
ag6153
aa(lp6592
g6050
aa(lp6593
g6050
aa(lp6594
g6050
aa(lp6595
g6050
aa(lp6596
g5944
aa(lp6597
g5944
aa(lp6598
g5948
aa(lp6599
g5948
aa(lp6600
(lp6601
F4150.48
aF2085.13
aaa(lp6602
g6601
aa(lp6603
g5953
aa(lp6604
g5953
aa(lp6605
(lp6606
F4133.47
aF2191.54
aaa(lp6607
g6606
aa(lp6608
g6606
aa(lp6609
g6502
aa(lp6610
g6502
aa(lp6611
g6502
aa(lp6612
g6502
aa(lp6613
g6284
aa(lp6614
g6284
aa(lp6615
g6284
aa(lp6616
g6284
aa(lp6617
g6284
aa(lp6618
g6510
aa(lp6619
g6510
aa(lp6620
g6402
ag6403
aa(lp6621
g6405
aa(lp6622
g6405
aa(lp6623
g6405
aa(lp6624
g6294
ag6295
aa(lp6625
g6294
ag6295
aa(lp6626
g6294
ag6295
aa(lp6627
g6411
aa(lp6628
g6411
aa(lp6629
g6411
aa(lp6630
g6523
aa(lp6631
g6523
aa(lp6632
g6197
aa(lp6633
g6197
aa(lp6634
g6197
aa(lp6635
g6197
aa(lp6636
g6094
aa(lp6637
g6094
aa(lp6638
g6094
aa(lp6639
g6094
aa(lp6640
g6094
aa(lp6641
g5992
aa(lp6642
g5992
aa(lp6643
(lp6644
F4148.78
aF3020.61
aaa(lp6645
g6644
aa(lp6646
g6542
aa(lp6647
g6542
aa(lp6648
g6542
aa(lp6649
g6542
aa(lp6650
g6542
aa(lp6651
g6438
aa(lp6652
g6438
aa(lp6653
g6438
aa(lp6654
g6438
aa(lp6655
g6438
aa(lp6656
g6326
aa(lp6657
g6326
aa(lp6658
g6552
aa(lp6659
g6552
aa(lp6660
g6332
aa(lp6661
g6448
ag6449
aa(lp6662
g6448
ag6449
aa(lp6663
g6336
aa(lp6664
g6336
aa(lp6665
g6336
aa(lp6666
g6341
aa(lp6667
g6341
aa(lp6668
g6341
aa(lp6669
g6341
aa(lp6670
g6341
aa(lp6671
g6341
aaa(lp6672
(lp6673
g5811
aa(lp6674
g5811
aa(lp6675
g5811
aa(lp6676
g6353
aa(lp6677
g6353
aa(lp6678
g6353
aa(lp6679
g6353
aa(lp6680
g6353
aa(lp6681
g6357
ag6358
aa(lp6682
g6357
ag6358
aa(lp6683
g6357
ag6358
aa(lp6684
g6362
aa(lp6685
g6362
aa(lp6686
g6362
aa(lp6687
g6362
aa(lp6688
g6583
aa(lp6689
g6583
aa(lp6690
g6583
aa(lp6691
g6255
ag6256
aa(lp6692
g6255
ag6256
aa(lp6693
g6151
ag6152
ag6153
aa(lp6694
g6151
ag6152
ag6153
aa(lp6695
g6151
ag6152
ag6153
aa(lp6696
g6151
ag6152
ag6153
aa(lp6697
(lp6698
F4175.34
aF1929.68
aaa(lp6699
g6698
aa(lp6700
g6050
aa(lp6701
(lp6702
F4166.88
aF1982.27
aaa(lp6703
g5944
aa(lp6704
(lp6705
F4158.59
aF2034.09
aaa(lp6706
g6601
aa(lp6707
g6601
aa(lp6708
g6601
aa(lp6709
g6601
aa(lp6710
g6606
aa(lp6711
g6606
aa(lp6712
g6606
aa(lp6713
g6606
aa(lp6714
g6606
aa(lp6715
g6502
aa(lp6716
g6502
aa(lp6717
g6502
aa(lp6718
g6502
aa(lp6719
g6284
aa(lp6720
g6284
aa(lp6721
g6284
aa(lp6722
g6284
aa(lp6723
g6284
aa(lp6724
g6510
aa(lp6725
g6510
aa(lp6726
g6402
ag6403
aa(lp6727
g6402
ag6403
aa(lp6728
g6405
aa(lp6729
g6405
aa(lp6730
g6294
ag6295
aa(lp6731
g6294
ag6295
aa(lp6732
g6294
ag6295
aa(lp6733
g6411
aa(lp6734
g6411
aa(lp6735
g6411
aa(lp6736
g6523
aa(lp6737
g6523
aa(lp6738
g6197
aa(lp6739
g6197
aa(lp6740
g6197
aa(lp6741
g6197
aa(lp6742
g6094
aa(lp6743
g6094
aa(lp6744
g6094
aa(lp6745
(lp6746
F4165.26
aF2917.53
aaa(lp6747
g6746
aa(lp6748
g6644
aa(lp6749
g6644
aa(lp6750
g6644
aa(lp6751
g6644
aa(lp6752
g6542
aa(lp6753
g6542
aa(lp6754
g6542
aa(lp6755
g6542
aa(lp6756
g6542
aa(lp6757
g6542
aa(lp6758
(lp6759
F4115.55
aF3228.32
aaa(lp6760
g6759
aa(lp6761
g6759
aa(lp6762
(lp6763
F4099.07
aF3331.73
aaa(lp6764
g6763
aa(lp6765
g6763
aa(lp6766
g6763
aa(lp6767
g6763
aa(lp6768
(lp6769
F4089.55
aF3391.22
aaa(lp6770
g6769
aa(lp6771
g6448
ag6449
aa(lp6772
g6336
aa(lp6773
g6336
aa(lp6774
g6336
aa(lp6775
g6341
aa(lp6776
g6341
aa(lp6777
g6341
aa(lp6778
g6341
aa(lp6779
g6341
aa(lp6780
g6341
aaa(lp6781
(lp6782
(lp6783
F4258.12
aF1412.06
aaa(lp6784
g6783
aa(lp6785
g6783
aa(lp6786
g6353
aa(lp6787
g6353
aa(lp6788
g6353
aa(lp6789
g6353
aa(lp6790
g6353
aa(lp6791
g6357
ag6358
aa(lp6792
g6357
ag6358
aa(lp6793
g6357
ag6358
aa(lp6794
g6362
aa(lp6795
g6362
aa(lp6796
(lp6797
F4173.71
aF1668.59
aaa(lp6798
(lp6799
F4168.43
aF1684.44
aaa(lp6800
g6799
aa(lp6801
g6583
aa(lp6802
g6583
aa(lp6803
g6255
ag6256
aa(lp6804
g6255
ag6256
aa(lp6805
g6151
ag6152
ag6153
aa(lp6806
g6151
ag6152
ag6153
aa(lp6807
(lp6808
F4183.63
aF1877.75
aaa(lp6809
g6698
aa(lp6810
g6698
aa(lp6811
g6698
aa(lp6812
g6698
aa(lp6813
g6702
aa(lp6814
g6702
aa(lp6815
g6705
aa(lp6816
g6601
aa(lp6817
g6601
aa(lp6818
g6601
aa(lp6819
g6601
aa(lp6820
g6606
aa(lp6821
g6606
aa(lp6822
g6606
aa(lp6823
g6606
aa(lp6824
g6606
aa(lp6825
g6502
aa(lp6826
g6502
aa(lp6827
g6502
aa(lp6828
g6502
aa(lp6829
g6502
aa(lp6830
g6284
aa(lp6831
g6284
aa(lp6832
g6284
aa(lp6833
g6284
aa(lp6834
g6510
aa(lp6835
g6510
aa(lp6836
g6402
ag6403
aa(lp6837
g6402
ag6403
aa(lp6838
g6405
aa(lp6839
g6405
aa(lp6840
g6294
ag6295
aa(lp6841
g6294
ag6295
aa(lp6842
g6294
ag6295
aa(lp6843
g6411
aa(lp6844
g6411
aa(lp6845
(lp6846
F4199.63
aF2709.44
aaa(lp6847
g6523
aa(lp6848
g6523
aa(lp6849
g6197
aa(lp6850
g6197
aa(lp6851
(lp6852
F4182.27
aF2811.45
aaa(lp6853
g6852
aa(lp6854
g6746
aa(lp6855
g6746
aa(lp6856
g6746
aa(lp6857
g6746
aa(lp6858
g6746
aa(lp6859
g6644
aa(lp6860
g6644
aa(lp6861
g6644
aa(lp6862
g6644
aa(lp6863
g6542
aa(lp6864
g6542
aa(lp6865
g6542
aa(lp6866
g6542
aa(lp6867
g6542
aa(lp6868
g6542
aa(lp6869
g6759
aa(lp6870
g6759
aa(lp6871
g6759
aa(lp6872
g6759
aa(lp6873
g6763
aa(lp6874
g6763
aa(lp6875
g6763
aa(lp6876
g6763
aa(lp6877
g6769
aa(lp6878
g6769
aa(lp6879
g6448
ag6449
aa(lp6880
g6336
aa(lp6881
g6336
aa(lp6882
g6336
aa(lp6883
g6341
aa(lp6884
g6341
aa(lp6885
g6341
aa(lp6886
g6341
aa(lp6887
g6341
aa(lp6888
g6341
aaa(lp6889
(lp6890
g6783
aa(lp6891
g6783
aa(lp6892
g6783
aa(lp6893
(lp6894
F4249.92
aF1462.99
aaa(lp6895
g6894
aa(lp6896
g6353
aa(lp6897
g6353
aa(lp6898
g6353
aa(lp6899
g6357
ag6358
aa(lp6900
g6357
ag6358
aa(lp6901
g6797
aa(lp6902
g6797
aa(lp6903
g6797
aa(lp6904
g6797
aa(lp6905
g6799
aa(lp6906
g6799
aa(lp6907
g6799
aa(lp6908
g6583
aa(lp6909
(lp6910
F4200.29
aF1773.89
aaa(lp6911
g6910
aa(lp6912
g6910
aa(lp6913
g6808
aa(lp6914
g6808
aa(lp6915
g6698
aa(lp6916
g6698
aa(lp6917
g6698
aa(lp6918
g6698
aa(lp6919
g6702
aa(lp6920
g6702
aa(lp6921
g6705
aa(lp6922
g6601
aa(lp6923
g6601
aa(lp6924
g6601
aa(lp6925
g6601
aa(lp6926
g6601
aa(lp6927
g6606
aa(lp6928
g6606
aa(lp6929
g6606
aa(lp6930
g6606
aa(lp6931
g6502
aa(lp6932
g6502
aa(lp6933
g6502
aa(lp6934
g6502
aa(lp6935
g6502
aa(lp6936
g6284
aa(lp6937
g6284
aa(lp6938
g6284
aa(lp6939
g6284
aa(lp6940
g6510
aa(lp6941
g6510
aa(lp6942
g6402
ag6403
aa(lp6943
g6402
ag6403
aa(lp6944
g6405
aa(lp6945
g6405
aa(lp6946
g6294
ag6295
aa(lp6947
(lp6948
F4214.8
aF2611.39
aaa(lp6949
g6948
aa(lp6950
g6846
aa(lp6951
g6846
aa(lp6952
g6846
aa(lp6953
g6846
aa(lp6954
g6846
aa(lp6955
g6852
aa(lp6956
g6852
aa(lp6957
g6852
aa(lp6958
g6852
aa(lp6959
g6746
aa(lp6960
g6746
aa(lp6961
g6746
aa(lp6962
g6746
aa(lp6963
g6746
aa(lp6964
g6644
aa(lp6965
g6644
aa(lp6966
g6644
aa(lp6967
g6644
aa(lp6968
g6644
aa(lp6969
g6542
aa(lp6970
g6542
aa(lp6971
g6542
aa(lp6972
g6542
aa(lp6973
g6542
aa(lp6974
g6759
aa(lp6975
g6759
aa(lp6976
g6759
aa(lp6977
g6759
aa(lp6978
g6763
aa(lp6979
g6763
aa(lp6980
g6763
aa(lp6981
g6763
aa(lp6982
g6769
aa(lp6983
g6769
aa(lp6984
g6448
ag6449
aa(lp6985
(lp6986
F4192.05
aF3443.18
aaa(lp6987
g6986
aa(lp6988
g6986
aa(lp6989
g6341
aa(lp6990
g6341
aa(lp6991
(lp6992
F4204.03
aF3560.82
aaa(lp6993
g6992
aa(lp6994
g6992
aa(lp6995
g6992
aaa(lp6996
(lp6997
g6783
aa(lp6998
g6783
aa(lp6999
g6783
aa(lp7000
g6894
aa(lp7001
g6894
aa(lp7002
g6894
aa(lp7003
g6353
aa(lp7004
g6353
aa(lp7005
g6357
ag6358
aa(lp7006
(lp7007
F4233.0
aF1568.18
aaa(lp7008
g6797
aa(lp7009
g6797
aa(lp7010
g6797
aa(lp7011
g6797
aa(lp7012
g6799
aa(lp7013
g6799
aa(lp7014
g6799
aa(lp7015
g6910
aa(lp7016
g6910
aa(lp7017
g6910
aa(lp7018
g6910
aa(lp7019
g6808
aa(lp7020
g6808
aa(lp7021
g6698
aa(lp7022
g6698
aa(lp7023
g6698
aa(lp7024
g6698
aa(lp7025
g6702
aa(lp7026
g6702
aa(lp7027
g6705
aa(lp7028
g6705
aa(lp7029
g6601
aa(lp7030
g6601
aa(lp7031
g6601
aa(lp7032
g6601
aa(lp7033
g6606
aa(lp7034
g6606
aa(lp7035
g6606
aa(lp7036
g6606
aa(lp7037
g6502
aa(lp7038
g6502
aa(lp7039
g6502
aa(lp7040
g6502
aa(lp7041
g6502
aa(lp7042
g6284
aa(lp7043
g6284
aa(lp7044
(lp7045
F4245.83
aF2416.05
aaa(lp7046
g7045
aa(lp7047
g6510
aa(lp7048
g6510
aa(lp7049
g6402
ag6403
aa(lp7050
(lp7051
F4230.22
aF2513.61
aaa(lp7052
g7051
aa(lp7053
g6405
aa(lp7054
g6948
aa(lp7055
g6948
aa(lp7056
g6948
aa(lp7057
g6846
aa(lp7058
g6846
aa(lp7059
g6846
aa(lp7060
g6846
aa(lp7061
g6846
aa(lp7062
g6852
aa(lp7063
g6852
aa(lp7064
g6852
aa(lp7065
g6852
aa(lp7066
g6746
aa(lp7067
g6746
aa(lp7068
g6746
aa(lp7069
g6746
aa(lp7070
g6746
aa(lp7071
g6746
aa(lp7072
g6644
aa(lp7073
g6644
aa(lp7074
g6644
aa(lp7075
g6644
aa(lp7076
g6542
aa(lp7077
g6542
aa(lp7078
g6542
aa(lp7079
g6542
aa(lp7080
g6542
aa(lp7081
g6759
aa(lp7082
g6759
aa(lp7083
g6759
aa(lp7084
g6759
aa(lp7085
g6763
aa(lp7086
g6763
aa(lp7087
g6763
aa(lp7088
(lp7089
F4237.35
aF3354.19
aa(lp7090
F4250.17
aF3356.46
aaa(lp7091
g6769
aa(lp7092
g6769
aa(lp7093
g6986
aa(lp7094
g6986
aa(lp7095
g6986
aa(lp7096
g6986
aa(lp7097
g6992
aa(lp7098
g6992
aa(lp7099
g6992
aa(lp7100
g6992
aa(lp7101
g6992
aa(lp7102
g6992
aaa(lp7103
(lp7104
g6783
aa(lp7105
g6783
aa(lp7106
g6783
aa(lp7107
g6894
aa(lp7108
g6894
aa(lp7109
g6894
aa(lp7110
g6894
aa(lp7111
g7007
aa(lp7112
g7007
aa(lp7113
g7007
aa(lp7114
(lp7115
F4202.36
aF1671.62
aaa(lp7116
g7115
aa(lp7117
g7115
aa(lp7118
g7115
aa(lp7119
(lp7120
F4189.52
aF1686.69
aaa(lp7121
g7120
aa(lp7122
g7120
aa(lp7123
g6910
aa(lp7124
g6910
aa(lp7125
g6910
aa(lp7126
g6910
aa(lp7127
g6808
aa(lp7128
g6808
aa(lp7129
g6808
aa(lp7130
g6698
aa(lp7131
g6698
aa(lp7132
g6698
aa(lp7133
g6702
aa(lp7134
g6702
aa(lp7135
g6705
aa(lp7136
g6705
aa(lp7137
g6601
aa(lp7138
g6601
aa(lp7139
g6601
aa(lp7140
g6601
aa(lp7141
g6606
aa(lp7142
g6606
aa(lp7143
(lp7144
F4277.65
aF2214.67
aaa(lp7145
g7144
aa(lp7146
g6502
aa(lp7147
g6502
aa(lp7148
g6502
aa(lp7149
(lp7150
F4261.78
aF2318.59
aaa(lp7151
g7150
aa(lp7152
g7045
aa(lp7153
g7045
aa(lp7154
g7045
aa(lp7155
g7045
aa(lp7156
g7045
aa(lp7157
g6510
aa(lp7158
g7051
aa(lp7159
g7051
aa(lp7160
g7051
aa(lp7161
g6948
aa(lp7162
g6948
aa(lp7163
g6948
aa(lp7164
g6948
aa(lp7165
g6846
aa(lp7166
g6846
aa(lp7167
g6846
aa(lp7168
g6846
aa(lp7169
g6846
aa(lp7170
g6852
aa(lp7171
g6852
aa(lp7172
g6852
aa(lp7173
g6852
aa(lp7174
g6852
aa(lp7175
g6746
aa(lp7176
g6746
aa(lp7177
g6746
aa(lp7178
g6746
aa(lp7179
g6746
aa(lp7180
g6644
aa(lp7181
g6644
aa(lp7182
g6644
aa(lp7183
g6644
aa(lp7184
g6542
aa(lp7185
g6542
aa(lp7186
g6542
aa(lp7187
(lp7188
F4269.88
aF3146.82
aaa(lp7189
g7188
aa(lp7190
g6759
aa(lp7191
g6759
aa(lp7192
(lp7193
F4253.22
aF3250.13
aaa(lp7194
g7193
aa(lp7195
g7193
aa(lp7196
g7089
ag7090
aa(lp7197
g7089
ag7090
aa(lp7198
g7089
ag7090
aa(lp7199
g6986
aa(lp7200
g6986
aa(lp7201
g6986
aa(lp7202
g6986
aa(lp7203
g6986
aa(lp7204
g6986
aa(lp7205
g6992
aa(lp7206
g6992
aa(lp7207
g6992
aa(lp7208
g6992
aa(lp7209
g6992
aa(lp7210
g6992
aaa(lp7211
(lp7212
g6783
aa(lp7213
g6783
aa(lp7214
g6783
aa(lp7215
g6894
aa(lp7216
g6894
aa(lp7217
g6894
aa(lp7218
g6894
aa(lp7219
g7007
aa(lp7220
g7007
aa(lp7221
g7007
aa(lp7222
g7007
aa(lp7223
(lp7224
F4215.98
aF1671.62
aa(lp7225
F4229.34
aF1671.2
aaa(lp7226
g7224
ag7225
aa(lp7227
g7224
ag7225
aa(lp7228
(lp7229
F4212.99
aF1687.45
aa(lp7230
F4227.57
aF1698.5
aaa(lp7231
g7229
ag7230
aa(lp7232
g7229
ag7230
aa(lp7233
g6910
aa(lp7234
g6910
aa(lp7235
g6910
aa(lp7236
g6910
aa(lp7237
g6808
aa(lp7238
g6808
aa(lp7239
g6808
aa(lp7240
g6698
aa(lp7241
g6698
aa(lp7242
g6698
aa(lp7243
g6702
aa(lp7244
g6702
aa(lp7245
g6705
aa(lp7246
g6705
aa(lp7247
g6601
aa(lp7248
g6601
aa(lp7249
(lp7250
F4294.76
aF2108.26
aaa(lp7251
g7250
aa(lp7252
g7144
aa(lp7253
g7144
aa(lp7254
g7144
aa(lp7255
g7144
aa(lp7256
g7144
aa(lp7257
g7150
aa(lp7258
g7150
aa(lp7259
g7150
aa(lp7260
g7150
aa(lp7261
g7045
aa(lp7262
g7045
aa(lp7263
g7045
aa(lp7264
g7045
aa(lp7265
g7045
aa(lp7266
g7051
aa(lp7267
g7051
aa(lp7268
g7051
aa(lp7269
g7051
aa(lp7270
g6948
aa(lp7271
g6948
aa(lp7272
g6948
aa(lp7273
g6948
aa(lp7274
g6948
aa(lp7275
g6846
aa(lp7276
g6846
aa(lp7277
g6846
aa(lp7278
g6846
aa(lp7279
g6852
aa(lp7280
g6852
aa(lp7281
g6852
aa(lp7282
g6852
aa(lp7283
g6852
aa(lp7284
g6746
aa(lp7285
g6746
aa(lp7286
g6746
aa(lp7287
g6746
aa(lp7288
g6746
aa(lp7289
g6644
aa(lp7290
g6644
aa(lp7291
(lp7292
F4286.54
aF3043.49
aa(lp7293
F4299.36
aF3045.76
aaa(lp7294
g7292
ag7293
aa(lp7295
g7188
aa(lp7296
g7188
aa(lp7297
g7188
aa(lp7298
g7188
aa(lp7299
g7188
aa(lp7300
g7193
aa(lp7301
g7193
aa(lp7302
g7193
aa(lp7303
g7193
aa(lp7304
g7193
aa(lp7305
g7089
ag7090
aa(lp7306
g7089
ag7090
aa(lp7307
g7089
ag7090
aa(lp7308
(lp7309
F4225.19
aF3425.84
aaa(lp7310
g7309
aa(lp7311
g7309
aa(lp7312
(lp7313
F4206.46
aF3455.34
aa(lp7314
F4211.65
aF3443.94
aa(lp7315
F4218.41
aF3441.67
aa(lp7316
F4219.9
aF3452.24
aa(lp7317
F4222.98
aF3435.65
aaa(lp7318
(lp7319
F4220.69
aF3458.26
aaa(lp7320
g7319
aa(lp7321
g7319
aa(lp7322
(lp7323
F4216.15
aF3563.09
aaa(lp7324
g7323
aa(lp7325
g7323
aa(lp7326
g7323
aa(lp7327
g7323
aaa(lp7328
(lp7329
g6783
aa(lp7330
g6783
aa(lp7331
g6783
aa(lp7332
g6894
aa(lp7333
g6894
aa(lp7334
g6894
aa(lp7335
g6894
aa(lp7336
g7007
aa(lp7337
g7007
aa(lp7338
g7007
aa(lp7339
g7007
aa(lp7340
g7007
aa(lp7341
(lp7342
F4238.04
aF1670.96
aa(lp7343
F4245.25
aF1668.18
aa(lp7344
F4253.95
aF1664.92
aaa(lp7345
g7342
ag7343
ag7344
aa(lp7346
(lp7347
F4230.3
aF1685.94
aa(lp7348
F4246.38
aF1684.93
aaa(lp7349
(lp7350
F4241.1
aF1702.27
aaa(lp7351
g7350
aa(lp7352
g7350
aa(lp7353
g6910
aa(lp7354
g6910
aa(lp7355
g6910
aa(lp7356
g6808
aa(lp7357
g6808
aa(lp7358
g6808
aa(lp7359
g6698
aa(lp7360
g6698
aa(lp7361
(lp7362
F4319.71
aF1952.81
aaa(lp7363
g6702
aa(lp7364
(lp7365
F4311.24
aF2005.62
aaa(lp7366
g6705
aa(lp7367
(lp7368
F4302.96
aF2057.44
aaa(lp7369
g7250
aa(lp7370
g7250
aa(lp7371
g7250
aa(lp7372
g7250
aa(lp7373
g7144
aa(lp7374
g7144
aa(lp7375
g7144
aa(lp7376
g7144
aa(lp7377
g7144
aa(lp7378
g7150
aa(lp7379
g7150
aa(lp7380
g7150
aa(lp7381
g7150
aa(lp7382
g7045
aa(lp7383
g7045
aa(lp7384
g7045
aa(lp7385
g7045
aa(lp7386
g7045
aa(lp7387
g7051
aa(lp7388
g7051
aa(lp7389
g7051
aa(lp7390
g7051
aa(lp7391
g7051
aa(lp7392
g6948
aa(lp7393
g6948
aa(lp7394
g6948
aa(lp7395
g6948
aa(lp7396
g6846
aa(lp7397
g6846
aa(lp7398
g6846
aa(lp7399
g6846
aa(lp7400
g6852
aa(lp7401
g6852
aa(lp7402
g6852
aa(lp7403
g6852
aa(lp7404
g6852
aa(lp7405
g6746
aa(lp7406
g6746
aa(lp7407
g6746
aa(lp7408
(lp7409
F4303.11
aF2939.43
aa(lp7410
F4316.73
aF2941.68
aaa(lp7411
g7409
ag7410
aa(lp7412
g7292
ag7293
aa(lp7413
g7292
ag7293
aa(lp7414
g7292
ag7293
aa(lp7415
g7292
ag7293
aa(lp7416
g7188
aa(lp7417
g7188
aa(lp7418
g7188
aa(lp7419
g7188
aa(lp7420
g7188
aa(lp7421
g7193
aa(lp7422
g7193
aa(lp7423
g7193
aa(lp7424
g7193
aa(lp7425
g7193
aa(lp7426
g7089
ag7090
aa(lp7427
g7089
ag7090
aa(lp7428
g7089
ag7090
aa(lp7429
g7089
ag7090
aa(lp7430
g7309
aa(lp7431
g7309
aa(lp7432
(lp7433
F4234.31
aF3456.32
aa(lp7434
F4235.01
aF3448.47
aaa(lp7435
(lp7436
F4232.02
aF3468.83
aaa(lp7437
g7436
aa(lp7438
g7436
aa(lp7439
g7323
aa(lp7440
g7323
aa(lp7441
g7323
aa(lp7442
g7323
aa(lp7443
g7323
aaa(lp7444
(lp7445
g6783
aa(lp7446
g6783
aa(lp7447
g6783
aa(lp7448
g6783
aa(lp7449
g6894
aa(lp7450
g6894
aa(lp7451
g6894
aa(lp7452
g7007
aa(lp7453
g7007
aa(lp7454
g7007
aa(lp7455
g7007
aa(lp7456
(lp7457
F4275.05
aF1650.59
aaa(lp7458
g7457
aa(lp7459
(lp7460
F4260.28
aF1660.64
aaa(lp7461
(lp7462
F4268.0
aF1682.17
aaa(lp7463
(lp7464
F4254.72
aF1709.82
aa(lp7465
F4266.05
aF1720.37
aaa(lp7466
g7464
ag7465
aa(lp7467
(lp7468
F4300.65
aF1767.78
aaa(lp7469
g7468
aa(lp7470
(lp7471
F4314.26
aF1791.96
aaa(lp7472
g7471
aa(lp7473
(lp7474
F4336.46
aF1848.62
aaa(lp7475
g6808
aa(lp7476
(lp7477
F4327.99
aF1900.99
aaa(lp7478
g7362
aa(lp7479
g7362
aa(lp7480
g7362
aa(lp7481
g7362
aa(lp7482
g7365
aa(lp7483
g7365
aa(lp7484
g7368
aa(lp7485
g7250
aa(lp7486
g7250
aa(lp7487
g7250
aa(lp7488
g7250
aa(lp7489
g7144
aa(lp7490
g7144
aa(lp7491
g7144
aa(lp7492
g7144
aa(lp7493
g7144
aa(lp7494
g7150
aa(lp7495
g7150
aa(lp7496
g7150
aa(lp7497
g7150
aa(lp7498
g7150
aa(lp7499
g7045
aa(lp7500
g7045
aa(lp7501
g7045
aa(lp7502
g7045
aa(lp7503
g7051
aa(lp7504
g7051
aa(lp7505
g7051
aa(lp7506
g7051
aa(lp7507
g7051
aa(lp7508
g6948
aa(lp7509
g6948
aa(lp7510
g6948
aa(lp7511
g6948
aa(lp7512
g6846
aa(lp7513
g6846
aa(lp7514
(lp7515
F4336.43
aF2731.27
aa(lp7516
F4350.05
aF2733.54
aaa(lp7517
g7515
ag7516
aa(lp7518
g6852
aa(lp7519
g6852
aa(lp7520
g6852
aa(lp7521
(lp7522
F4320.56
aF2833.09
aaa(lp7523
g7522
aa(lp7524
g7522
aa(lp7525
g7409
ag7410
aa(lp7526
g7409
ag7410
aa(lp7527
g7409
ag7410
aa(lp7528
g7409
ag7410
aa(lp7529
g7292
ag7293
aa(lp7530
g7292
ag7293
aa(lp7531
g7292
ag7293
aa(lp7532
g7292
ag7293
aa(lp7533
g7188
aa(lp7534
g7188
aa(lp7535
g7188
aa(lp7536
g7188
aa(lp7537
g7188
aa(lp7538
g7188
aa(lp7539
(lp7540
F4266.83
aF3252.4
aaa(lp7541
g7540
aa(lp7542
g7540
aa(lp7543
g7540
aa(lp7544
g7089
ag7090
aa(lp7545
g7089
ag7090
aa(lp7546
g7089
ag7090
aa(lp7547
g7089
ag7090
aa(lp7548
g7309
aa(lp7549
g7309
aa(lp7550
g7433
ag7434
aa(lp7551
g7436
aa(lp7552
g7436
aa(lp7553
g7436
aa(lp7554
g7323
aa(lp7555
g7323
aa(lp7556
g7323
aa(lp7557
g7323
aa(lp7558
g7323
aaa(lp7559
(lp7560
g6783
aa(lp7561
g6783
aa(lp7562
g6783
aa(lp7563
g6783
aa(lp7564
g6894
aa(lp7565
g6894
aa(lp7566
g6894
aa(lp7567
g7007
aa(lp7568
g7007
aa(lp7569
g7007
aa(lp7570
(lp7571
F4325.6
aF1601.56
aaa(lp7572
(lp7573
F4288.24
aF1638.01
aaa(lp7574
g7573
aa(lp7575
g7460
aa(lp7576
(lp7577
F4289.88
aF1681.41
aaa(lp7578
g7464
ag7465
aa(lp7579
g7468
aa(lp7580
g7468
aa(lp7581
g7468
aa(lp7582
g7471
aa(lp7583
g7471
aa(lp7584
g7474
aa(lp7585
g7474
aa(lp7586
g7477
aa(lp7587
g7362
aa(lp7588
g7362
aa(lp7589
g7362
aa(lp7590
g7362
aa(lp7591
g7365
aa(lp7592
g7365
aa(lp7593
g7368
aa(lp7594
g7250
aa(lp7595
g7250
aa(lp7596
g7250
aa(lp7597
g7250
aa(lp7598
g7250
aa(lp7599
g7144
aa(lp7600
g7144
aa(lp7601
g7144
aa(lp7602
g7144
aa(lp7603
g7150
aa(lp7604
g7150
aa(lp7605
g7150
aa(lp7606
g7150
aa(lp7607
g7150
aa(lp7608
g7045
aa(lp7609
g7045
aa(lp7610
g7045
aa(lp7611
g7045
aa(lp7612
g7051
aa(lp7613
g7051
aa(lp7614
g7051
aa(lp7615
g7051
aa(lp7616
g7051
aa(lp7617
g6948
aa(lp7618
g6948
aa(lp7619
(lp7620
F4350.89
aF2633.37
aaa(lp7621
g7620
aa(lp7622
g7620
aa(lp7623
g7515
ag7516
aa(lp7624
g7515
ag7516
aa(lp7625
g7515
ag7516
aa(lp7626
g7522
aa(lp7627
g7522
aa(lp7628
g7522
aa(lp7629
g7522
aa(lp7630
g7522
aa(lp7631
g7522
aa(lp7632
g7409
ag7410
aa(lp7633
g7409
ag7410
aa(lp7634
g7409
ag7410
aa(lp7635
g7409
ag7410
aa(lp7636
g7292
ag7293
aa(lp7637
g7292
ag7293
aa(lp7638
g7292
ag7293
aa(lp7639
g7292
ag7293
aa(lp7640
g7292
ag7293
aa(lp7641
(lp7642
F4283.41
aF3149.07
aaa(lp7643
g7642
aa(lp7644
g7642
aa(lp7645
g7642
aa(lp7646
g7642
aa(lp7647
g7540
aa(lp7648
g7540
aa(lp7649
g7540
aa(lp7650
g7540
aa(lp7651
g7089
ag7090
aa(lp7652
g7089
ag7090
aa(lp7653
g7089
ag7090
aa(lp7654
g7089
ag7090
aa(lp7655
(lp7656
F4327.02
aF3422.25
aa(lp7657
F4338.62
aF3414.69
aaa(lp7658
g7656
ag7657
aa(lp7659
g7433
ag7434
aa(lp7660
g7436
aa(lp7661
g7436
aa(lp7662
g7436
aa(lp7663
g7323
aa(lp7664
g7323
aa(lp7665
(lp7666
F4354.87
aF3585.7
aaa(lp7667
g7666
aa(lp7668
g7666
aaa(lp7669
(lp7670
g6783
aa(lp7671
g6783
aa(lp7672
g6783
aa(lp7673
g6783
aa(lp7674
g6894
aa(lp7675
(lp7676
F4394.21
aF1487.34
aaa(lp7677
g7571
aa(lp7678
g7571
aa(lp7679
g7571
aa(lp7680
g7571
aa(lp7681
g7571
aa(lp7682
(lp7683
F4313.91
aF1611.61
aaa(lp7684
g7573
aa(lp7685
(lp7686
F4314.05
aF1684.44
aaa(lp7687
g7686
aa(lp7688
g7686
aa(lp7689
g7468
aa(lp7690
g7468
aa(lp7691
(lp7692
F4310.48
aF1780.72
aaa(lp7693
g7471
aa(lp7694
g7471
aa(lp7695
g7474
aa(lp7696
g7474
aa(lp7697
g7477
aa(lp7698
g7362
aa(lp7699
g7362
aa(lp7700
g7362
aa(lp7701
g7362
aa(lp7702
g7365
aa(lp7703
g7365
aa(lp7704
g7368
aa(lp7705
g7368
aa(lp7706
g7250
aa(lp7707
g7250
aa(lp7708
g7250
aa(lp7709
g7250
aa(lp7710
g7144
aa(lp7711
g7144
aa(lp7712
g7144
aa(lp7713
g7144
aa(lp7714
g7150
aa(lp7715
g7150
aa(lp7716
g7150
aa(lp7717
g7150
aa(lp7718
g7150
aa(lp7719
g7045
aa(lp7720
g7045
aa(lp7721
(lp7722
F4382.28
aF2437.54
aa(lp7723
F4396.6
aF2439.81
aaa(lp7724
g7722
ag7723
aa(lp7725
g7051
aa(lp7726
g7051
aa(lp7727
g7051
aa(lp7728
(lp7729
F4367.11
aF2535.58
aaa(lp7730
g7729
aa(lp7731
g7620
aa(lp7732
g7620
aa(lp7733
g7620
aa(lp7734
g7620
aa(lp7735
g7620
aa(lp7736
g7515
ag7516
aa(lp7737
g7515
ag7516
aa(lp7738
g7515
ag7516
aa(lp7739
g7522
aa(lp7740
g7522
aa(lp7741
g7522
aa(lp7742
g7522
aa(lp7743
g7522
aa(lp7744
g7522
aa(lp7745
g7409
ag7410
aa(lp7746
g7409
ag7410
aa(lp7747
g7409
ag7410
aa(lp7748
g7409
ag7410
aa(lp7749
(lp7750
F4348.59
aF3000.6
aaa(lp7751
g7292
ag7293
aa(lp7752
g7292
ag7293
aa(lp7753
g7292
ag7293
aa(lp7754
g7292
ag7293
aa(lp7755
g7642
aa(lp7756
g7642
aa(lp7757
g7642
aa(lp7758
g7642
aa(lp7759
g7642
aa(lp7760
g7540
aa(lp7761
g7540
aa(lp7762
g7540
aa(lp7763
g7540
aa(lp7764
g7089
ag7090
aa(lp7765
g7089
ag7090
aa(lp7766
g7089
ag7090
aa(lp7767
(lp7768
F4372.03
aF3375.66
aaa(lp7769
g7656
ag7657
aa(lp7770
g7656
ag7657
aa(lp7771
g7656
ag7657
aa(lp7772
g7436
aa(lp7773
(lp7774
F4371.27
aF3482.07
aaa(lp7775
g7774
aa(lp7776
g7774
aa(lp7777
g7666
aa(lp7778
g7666
aa(lp7779
g7666
aa(lp7780
g7666
aaa(lp7781
(lp7782
(lp7783
F4410.88
aF1383.49
aaa(lp7784
g6783
aa(lp7785
g6783
aa(lp7786
(lp7787
F4402.59
aF1435.3
aaa(lp7788
g7676
aa(lp7789
g7676
aa(lp7790
g7676
aa(lp7791
(lp7792
F4386.1
aF1539.05
aaa(lp7793
(lp7794
F4332.37
aF1597.79
aa(lp7795
F4339.93
aF1594.02
aa(lp7796
F4350.48
aF1590.24
aaa(lp7797
g7794
ag7795
ag7796
aa(lp7798
g7794
ag7795
ag7796
aa(lp7799
g7683
aa(lp7800
(lp7801
F4369.43
aF1642.46
aaa(lp7802
g7686
aa(lp7803
g7686
aa(lp7804
g7686
aa(lp7805
g7468
aa(lp7806
g7468
aa(lp7807
g7692
aa(lp7808
(lp7809
F4344.75
aF1796.8
aaa(lp7810
g7809
aa(lp7811
g7474
aa(lp7812
g7474
aa(lp7813
g7477
aa(lp7814
g7477
aa(lp7815
g7362
aa(lp7816
g7362
aa(lp7817
g7362
aa(lp7818
g7365
aa(lp7819
g7365
aa(lp7820
g7368
aa(lp7821
g7368
aa(lp7822
g7250
aa(lp7823
g7250
aa(lp7824
g7250
aa(lp7825
g7250
aa(lp7826
g7144
aa(lp7827
g7144
aa(lp7828
(lp7829
F4414.81
aF2236.16
aaa(lp7830
g7829
aa(lp7831
g7150
aa(lp7832
g7150
aa(lp7833
g7150
aa(lp7834
(lp7835
F4398.68
aF2340.63
aaa(lp7836
g7835
aa(lp7837
g7835
aa(lp7838
g7722
ag7723
aa(lp7839
g7722
ag7723
aa(lp7840
g7722
ag7723
aa(lp7841
g7729
aa(lp7842
g7729
aa(lp7843
g7729
aa(lp7844
g7729
aa(lp7845
g7729
aa(lp7846
g7620
aa(lp7847
g7620
aa(lp7848
g7620
aa(lp7849
g7620
aa(lp7850
g7620
aa(lp7851
g7515
ag7516
aa(lp7852
g7515
ag7516
aa(lp7853
g7515
ag7516
aa(lp7854
g7515
ag7516
aa(lp7855
(lp7856
F4334.53
aF2834.99
aaa(lp7857
g7856
aa(lp7858
g7856
aa(lp7859
g7856
aa(lp7860
g7856
aa(lp7861
g7409
ag7410
aa(lp7862
g7409
ag7410
aa(lp7863
g7409
ag7410
aa(lp7864
g7750
aa(lp7865
g7750
aa(lp7866
g7750
aa(lp7867
g7292
ag7293
aa(lp7868
g7292
ag7293
aa(lp7869
g7292
ag7293
aa(lp7870
g7642
aa(lp7871
g7642
aa(lp7872
g7642
aa(lp7873
g7642
aa(lp7874
g7642
aa(lp7875
g7540
aa(lp7876
g7540
aa(lp7877
(lp7878
F4404.5
aF3274.8
aaa(lp7879
g7878
aa(lp7880
g7768
aa(lp7881
g7768
aa(lp7882
g7768
aa(lp7883
g7768
aa(lp7884
g7656
ag7657
aa(lp7885
g7656
ag7657
aa(lp7886
g7656
ag7657
aa(lp7887
g7656
ag7657
aa(lp7888
g7774
aa(lp7889
g7774
aa(lp7890
g7774
aa(lp7891
g7666
aa(lp7892
g7666
aa(lp7893
g7666
aa(lp7894
g7666
aaa(lp7895
(lp7896
g7783
aa(lp7897
g7783
aa(lp7898
g7787
aa(lp7899
g7787
aa(lp7900
g7676
aa(lp7901
g7676
aa(lp7902
g7676
aa(lp7903
g7792
aa(lp7904
(lp7905
F4360.32
aF1588.39
aa(lp7906
F4369.37
aF1588.74
aaa(lp7907
g7905
ag7906
aa(lp7908
g7905
ag7906
aa(lp7909
g7905
ag7906
aa(lp7910
g7801
aa(lp7911
g7801
aa(lp7912
(lp7913
F4361.5
aF1693.49
aaa(lp7914
g7913
aa(lp7915
g7913
aa(lp7916
g7468
aa(lp7917
g7692
aa(lp7918
g7809
aa(lp7919
g7809
aa(lp7920
g7474
aa(lp7921
g7474
aa(lp7922
g7477
aa(lp7923
g7477
aa(lp7924
g7362
aa(lp7925
g7362
aa(lp7926
g7362
aa(lp7927
g7365
aa(lp7928
g7365
aa(lp7929
g7368
aa(lp7930
g7368
aa(lp7931
g7250
aa(lp7932
g7250
aa(lp7933
(lp7934
F4431.48
aF2130.22
aa(lp7935
F4446.59
aF2133.23
aaa(lp7936
g7934
ag7935
aa(lp7937
g7829
aa(lp7938
g7829
aa(lp7939
g7829
aa(lp7940
g7829
aa(lp7941
g7835
aa(lp7942
g7835
aa(lp7943
g7835
aa(lp7944
g7835
aa(lp7945
g7835
aa(lp7946
g7835
aa(lp7947
g7722
ag7723
aa(lp7948
g7722
ag7723
aa(lp7949
g7722
ag7723
aa(lp7950
g7729
aa(lp7951
g7729
aa(lp7952
g7729
aa(lp7953
g7729
aa(lp7954
g7729
aa(lp7955
g7729
aa(lp7956
(lp7957
F4366.71
aF2635.64
aaa(lp7958
g7957
aa(lp7959
g7957
aa(lp7960
g7957
aa(lp7961
g7515
ag7516
aa(lp7962
g7515
ag7516
aa(lp7963
g7515
ag7516
aa(lp7964
g7515
ag7516
aa(lp7965
g7856
aa(lp7966
g7856
aa(lp7967
g7856
aa(lp7968
g7856
aa(lp7969
g7856
aa(lp7970
g7409
ag7410
aa(lp7971
g7409
ag7410
aa(lp7972
g7409
ag7410
aa(lp7973
g7750
aa(lp7974
g7750
aa(lp7975
g7750
aa(lp7976
g7292
ag7293
aa(lp7977
(lp7978
F4437.74
aF3066.98
aaa(lp7979
g7978
aa(lp7980
g7642
aa(lp7981
g7642
aa(lp7982
g7642
aa(lp7983
(lp7984
F4421.08
aF3171.17
aaa(lp7985
g7984
aa(lp7986
(lp7987
F4409.53
aF3243.44
aaa(lp7988
g7987
aa(lp7989
g7878
aa(lp7990
g7878
aa(lp7991
g7768
aa(lp7992
g7768
aa(lp7993
g7768
aa(lp7994
g7768
aa(lp7995
g7768
aa(lp7996
g7656
ag7657
aa(lp7997
g7656
ag7657
aa(lp7998
g7774
aa(lp7999
g7774
aa(lp8000
g7774
aa(lp8001
g7774
aa(lp8002
g7666
aa(lp8003
g7666
aa(lp8004
g7666
aa(lp8005
g7666
aaa(lp8006
(lp8007
g7783
aa(lp8008
g7783
aa(lp8009
g7787
aa(lp8010
g7787
aa(lp8011
g7676
aa(lp8012
g7676
aa(lp8013
g7676
aa(lp8014
g7792
aa(lp8015
g7792
aa(lp8016
(lp8017
F4377.99
aF1589.74
aaa(lp8018
g8017
aa(lp8019
g8017
aa(lp8020
g7801
aa(lp8021
g7801
aa(lp8022
g7913
aa(lp8023
g7913
aa(lp8024
g7913
aa(lp8025
g7468
aa(lp8026
g7692
aa(lp8027
g7809
aa(lp8028
g7809
aa(lp8029
g7474
aa(lp8030
g7474
aa(lp8031
g7477
aa(lp8032
g7477
aa(lp8033
g7362
aa(lp8034
g7362
aa(lp8035
(lp8036
F4457.92
aF1974.84
aaa(lp8037
g7365
aa(lp8038
(lp8039
F4449.64
aF2027.64
aa(lp8040
F4462.46
aF2029.14
aaa(lp8041
g7368
aa(lp8042
(lp8043
F4439.85
aF2078.92
aaa(lp8044
g8043
aa(lp8045
g7934
ag7935
aa(lp8046
g7934
ag7935
aa(lp8047
g7934
ag7935
aa(lp8048
g7829
aa(lp8049
g7829
aa(lp8050
g7829
aa(lp8051
g7829
aa(lp8052
g7835
aa(lp8053
g7835
aa(lp8054
g7835
aa(lp8055
g7835
aa(lp8056
g7835
aa(lp8057
g7835
aa(lp8058
g7722
ag7723
aa(lp8059
g7722
ag7723
aa(lp8060
g7722
ag7723
aa(lp8061
g7722
ag7723
aa(lp8062
(lp8063
F4380.73
aF2537.09
aaa(lp8064
g8063
aa(lp8065
g8063
aa(lp8066
g8063
aa(lp8067
g8063
aa(lp8068
g7957
aa(lp8069
g7957
aa(lp8070
g7957
aa(lp8071
g7957
aa(lp8072
g7515
ag7516
aa(lp8073
g7515
ag7516
aa(lp8074
g7515
ag7516
aa(lp8075
g7515
ag7516
aa(lp8076
g7856
aa(lp8077
g7856
aa(lp8078
g7856
aa(lp8079
g7856
aa(lp8080
g7856
aa(lp8081
g7409
ag7410
aa(lp8082
g7409
ag7410
aa(lp8083
g7409
ag7410
aa(lp8084
g7750
aa(lp8085
g7750
aa(lp8086
(lp8087
F4445.85
aF3016.5
aaa(lp8088
g8087
aa(lp8089
g7978
aa(lp8090
g7978
aa(lp8091
g7984
aa(lp8092
g7984
aa(lp8093
g7984
aa(lp8094
g7984
aa(lp8095
g7984
aa(lp8096
g7987
aa(lp8097
g7987
aa(lp8098
g7878
aa(lp8099
g7878
aa(lp8100
(lp8101
F4387.93
aF3378.21
aaa(lp8102
g8101
aa(lp8103
g8101
aa(lp8104
g8101
aa(lp8105
g8101
aa(lp8106
g7656
ag7657
aa(lp8107
g7656
ag7657
aa(lp8108
g7774
aa(lp8109
g7774
aa(lp8110
g7774
aa(lp8111
(lp8112
F4437.84
aF3527.96
aaa(lp8113
g7666
aa(lp8114
g7666
aa(lp8115
(lp8116
F4404.15
aF3593.6
aaa(lp8117
g8116
aaa(lp8118
(lp8119
g7783
aa(lp8120
g7783
aa(lp8121
g7787
aa(lp8122
g7787
aa(lp8123
g7787
aa(lp8124
g7676
aa(lp8125
g7676
aa(lp8126
g7792
aa(lp8127
g7792
aa(lp8128
g8017
aa(lp8129
g8017
aa(lp8130
g8017
aa(lp8131
g7801
aa(lp8132
g7801
aa(lp8133
g7913
aa(lp8134
g7913
aa(lp8135
g7913
aa(lp8136
g7468
aa(lp8137
g7692
aa(lp8138
g7809
aa(lp8139
(lp8140
F4481.65
aF1819.18
aaa(lp8141
g7474
aa(lp8142
(lp8143
F4474.59
aF1870.75
aa(lp8144
F4487.68
aF1873.49
aaa(lp8145
g7477
aa(lp8146
(lp8147
F4464.81
aF1924.31
aaa(lp8148
g8147
aa(lp8149
g8036
aa(lp8150
g8036
aa(lp8151
g8036
aa(lp8152
g8039
ag8040
aa(lp8153
g8043
aa(lp8154
g8043
aa(lp8155
g8043
aa(lp8156
g7934
ag7935
aa(lp8157
g7934
ag7935
aa(lp8158
g7934
ag7935
aa(lp8159
g7829
aa(lp8160
g7829
aa(lp8161
g7829
aa(lp8162
g7829
aa(lp8163
g7829
aa(lp8164
(lp8165
F4412.38
aF2342.87
aaa(lp8166
g8165
aa(lp8167
g8165
aa(lp8168
g8165
aa(lp8169
g8165
aa(lp8170
g7722
ag7723
aa(lp8171
g7722
ag7723
aa(lp8172
g7722
ag7723
aa(lp8173
g7722
ag7723
aa(lp8174
g8063
aa(lp8175
g8063
aa(lp8176
g8063
aa(lp8177
g8063
aa(lp8178
g8063
aa(lp8179
g7957
aa(lp8180
g7957
aa(lp8181
g7957
aa(lp8182
g7957
aa(lp8183
g7515
ag7516
aa(lp8184
g7515
ag7516
aa(lp8185
(lp8186
F4487.55
aF2755.86
aaa(lp8187
g8186
aa(lp8188
g7856
aa(lp8189
g7856
aa(lp8190
g7856
aa(lp8191
(lp8192
F4471.24
aF2857.93
aaa(lp8193
g8192
aa(lp8194
g8192
aa(lp8195
(lp8196
F4454.22
aF2964.12
aaa(lp8197
g8196
aa(lp8198
g8196
aa(lp8199
g8087
aa(lp8200
g8087
aa(lp8201
g8087
aa(lp8202
g7978
aa(lp8203
g7978
aa(lp8204
g7984
aa(lp8205
g7984
aa(lp8206
g7984
aa(lp8207
g7984
aa(lp8208
g7984
aa(lp8209
g7987
aa(lp8210
g7987
aa(lp8211
g7878
aa(lp8212
g7878
aa(lp8213
g7878
aa(lp8214
g8101
aa(lp8215
g8101
aa(lp8216
g8101
aa(lp8217
g8101
aa(lp8218
g7656
ag7657
aa(lp8219
g7656
ag7657
aa(lp8220
g7774
aa(lp8221
g7774
aa(lp8222
g8112
aa(lp8223
g8112
aa(lp8224
(lp8225
F4415.93
aF3584.37
aaa(lp8226
g8225
aa(lp8227
g8116
aa(lp8228
g8116
aaa(lp8229
(lp8230
g7783
aa(lp8231
g7783
aa(lp8232
g7787
aa(lp8233
g7787
aa(lp8234
g7787
aa(lp8235
g7676
aa(lp8236
g7676
aa(lp8237
g7792
aa(lp8238
g7792
aa(lp8239
g8017
aa(lp8240
g8017
aa(lp8241
g8017
aa(lp8242
g7801
aa(lp8243
(lp8244
F4507.74
aF1664.7
aaa(lp8245
g7913
aa(lp8246
(lp8247
F4498.84
aF1716.13
aa(lp8248
F4513.08
aF1718.02
aaa(lp8249
g8247
ag8248
aa(lp8250
(lp8251
F4504.87
aF1771.19
aaa(lp8252
g8251
aa(lp8253
g8140
aa(lp8254
g8140
aa(lp8255
g8140
aa(lp8256
g8143
ag8144
aa(lp8257
g8147
aa(lp8258
g8147
aa(lp8259
g8147
aa(lp8260
g8036
aa(lp8261
g8036
aa(lp8262
g8036
aa(lp8263
g8039
ag8040
aa(lp8264
g8043
aa(lp8265
g8043
aa(lp8266
g8043
aa(lp8267
g7934
ag7935
aa(lp8268
g7934
ag7935
aa(lp8269
g7934
ag7935
aa(lp8270
g7934
ag7935
aa(lp8271
(lp8272
F4429.92
aF2238.93
aaa(lp8273
g8272
aa(lp8274
(lp8275
F4445.83
aF2241.19
aaa(lp8276
g8275
aa(lp8277
g8275
aa(lp8278
g8165
aa(lp8279
g8165
aa(lp8280
g8165
aa(lp8281
g8165
aa(lp8282
g7722
ag7723
aa(lp8283
g7722
ag7723
aa(lp8284
g7722
ag7723
aa(lp8285
g7722
ag7723
aa(lp8286
g8063
aa(lp8287
g8063
aa(lp8288
g8063
aa(lp8289
g8063
aa(lp8290
g8063
aa(lp8291
g7957
aa(lp8292
g7957
aa(lp8293
(lp8294
F4503.33
aF2657.67
aaa(lp8295
g8294
aa(lp8296
g8186
aa(lp8297
g8186
aa(lp8298
g8186
aa(lp8299
g8186
aa(lp8300
g8192
aa(lp8301
g8192
aa(lp8302
g8192
aa(lp8303
g8192
aa(lp8304
g8192
aa(lp8305
g8192
aa(lp8306
g8196
aa(lp8307
g8196
aa(lp8308
g8196
aa(lp8309
g8087
aa(lp8310
g8087
aa(lp8311
g8087
aa(lp8312
g7978
aa(lp8313
g7978
aa(lp8314
g7978
aa(lp8315
g7984
aa(lp8316
g7984
aa(lp8317
g7984
aa(lp8318
g7984
aa(lp8319
g7987
aa(lp8320
g7987
aa(lp8321
g7878
aa(lp8322
g7878
aa(lp8323
g7878
aa(lp8324
g8101
aa(lp8325
g8101
aa(lp8326
g8101
aa(lp8327
g8101
aa(lp8328
g7656
ag7657
aa(lp8329
(lp8330
F4452.44
aF3494.52
aaa(lp8331
g8330
aa(lp8332
g8330
aa(lp8333
g8112
aa(lp8334
g8112
aa(lp8335
g8112
aa(lp8336
(lp8337
F4430.26
aF3573.95
aaa(lp8338
(lp8339
F4424.71
aF3596.93
aa(lp8340
F4433.67
aF3598.38
aaa(lp8341
g8339
ag8340
aaa(lp8342
(lp8343
g7783
aa(lp8344
g7783
aa(lp8345
g7787
aa(lp8346
g7787
aa(lp8347
g7787
aa(lp8348
g7676
aa(lp8349
(lp8350
F4532.96
aF1508.97
aaa(lp8351
g7792
aa(lp8352
(lp8353
F4524.41
aF1561.18
aa(lp8354
F4537.85
aF1563.4
aaa(lp8355
g8017
aa(lp8356
g8017
aa(lp8357
(lp8358
F4516.56
aF1612.66
aaa(lp8359
g8358
aa(lp8360
g8244
aa(lp8361
g8244
aa(lp8362
g8247
ag8248
aa(lp8363
g8247
ag8248
aa(lp8364
g8251
aa(lp8365
g8251
aa(lp8366
g8140
aa(lp8367
g8140
aa(lp8368
g8140
aa(lp8369
g8143
ag8144
aa(lp8370
g8147
aa(lp8371
g8147
aa(lp8372
g8147
aa(lp8373
g8036
aa(lp8374
g8036
aa(lp8375
g8036
aa(lp8376
g8039
ag8040
aa(lp8377
g8039
ag8040
aa(lp8378
(lp8379
F4454.18
aF2081.95
aaa(lp8380
g8379
aa(lp8381
g7934
ag7935
aa(lp8382
g7934
ag7935
aa(lp8383
g7934
ag7935
aa(lp8384
g7934
ag7935
aa(lp8385
g8272
aa(lp8386
g8272
aa(lp8387
g8275
aa(lp8388
g8275
aa(lp8389
g8275
aa(lp8390
g8165
aa(lp8391
g8165
aa(lp8392
g8165
aa(lp8393
g8165
aa(lp8394
g7722
ag7723
aa(lp8395
g7722
ag7723
aa(lp8396
(lp8397
F4533.93
aF2463.05
aaa(lp8398
g8397
aa(lp8399
g8063
aa(lp8400
g8063
aa(lp8401
g8063
aa(lp8402
(lp8403
F4519.03
aF2560.27
aaa(lp8404
g8403
aa(lp8405
g8403
aa(lp8406
g8294
aa(lp8407
g8294
aa(lp8408
g8294
aa(lp8409
g8186
aa(lp8410
g8186
aa(lp8411
g8186
aa(lp8412
g8186
aa(lp8413
g8192
aa(lp8414
g8192
aa(lp8415
g8192
aa(lp8416
g8192
aa(lp8417
g8192
aa(lp8418
g8192
aa(lp8419
g8196
aa(lp8420
g8196
aa(lp8421
g8196
aa(lp8422
g8196
aa(lp8423
g8087
aa(lp8424
g8087
aa(lp8425
g7978
aa(lp8426
g7978
aa(lp8427
g7978
aa(lp8428
g7984
aa(lp8429
g7984
aa(lp8430
g7984
aa(lp8431
g7984
aa(lp8432
g7987
aa(lp8433
g7987
aa(lp8434
g7878
aa(lp8435
g7878
aa(lp8436
g7878
aa(lp8437
g8101
aa(lp8438
g8101
aa(lp8439
g8101
aa(lp8440
(lp8441
F4531.21
aF3411.62
aa(lp8442
F4532.89
aF3401.56
aaa(lp8443
g8330
aa(lp8444
g8330
aa(lp8445
g8330
aa(lp8446
g8330
aa(lp8447
g8330
aa(lp8448
g8112
aa(lp8449
g8112
aa(lp8450
g8337
aa(lp8451
g8339
ag8340
aa(lp8452
g8339
ag8340
aaa(lp8453
(lp8454
g7783
aa(lp8455
(lp8456
F4549.1
aF1404.78
aa(lp8457
F4562.81
aF1406.84
aaa(lp8458
g7787
aa(lp8459
g7787
aa(lp8460
(lp8461
F4541.52
aF1457.65
aaa(lp8462
g8461
aa(lp8463
g8350
aa(lp8464
g8350
aa(lp8465
g8353
ag8354
aa(lp8466
g8358
aa(lp8467
g8358
aa(lp8468
g8358
aa(lp8469
g8358
aa(lp8470
g8244
aa(lp8471
g8244
aa(lp8472
g8247
ag8248
aa(lp8473
g8247
ag8248
aa(lp8474
g8251
aa(lp8475
g8251
aa(lp8476
g8140
aa(lp8477
g8140
aa(lp8478
g8140
aa(lp8479
g8143
ag8144
aa(lp8480
g8143
ag8144
aa(lp8481
g8147
aa(lp8482
(lp8483
F4480.62
aF1926.56
aaa(lp8484
g8483
aa(lp8485
(lp8486
F4472.33
aF1976.35
aaa(lp8487
g8486
aa(lp8488
g8039
ag8040
aa(lp8489
g8039
ag8040
aa(lp8490
g8379
aa(lp8491
g8379
aa(lp8492
g7934
ag7935
aa(lp8493
g7934
ag7935
aa(lp8494
g7934
ag7935
aa(lp8495
g7934
ag7935
aa(lp8496
g8272
aa(lp8497
g8272
aa(lp8498
g8275
aa(lp8499
g8275
aa(lp8500
g8275
aa(lp8501
g8165
aa(lp8502
g8165
aa(lp8503
(lp8504
F4549.54
aF2365.14
aaa(lp8505
g8504
aa(lp8506
g8397
aa(lp8507
g8397
aa(lp8508
g8397
aa(lp8509
g8397
aa(lp8510
g8403
aa(lp8511
g8403
aa(lp8512
g8403
aa(lp8513
g8403
aa(lp8514
g8403
aa(lp8515
g8403
aa(lp8516
g8294
aa(lp8517
g8294
aa(lp8518
g8294
aa(lp8519
g8186
aa(lp8520
g8186
aa(lp8521
g8186
aa(lp8522
g8186
aa(lp8523
g8186
aa(lp8524
(lp8525
F4482.92
aF2863.94
aa(lp8526
F4484.16
aF2856.49
aaa(lp8527
g8525
ag8526
aa(lp8528
g8525
ag8526
aa(lp8529
g8525
ag8526
aa(lp8530
g8525
ag8526
aa(lp8531
g8196
aa(lp8532
g8196
aa(lp8533
g8196
aa(lp8534
g8196
aa(lp8535
g8087
aa(lp8536
g8087
aa(lp8537
g7978
aa(lp8538
g7978
aa(lp8539
g7978
aa(lp8540
g7984
aa(lp8541
g7984
aa(lp8542
g7984
aa(lp8543
(lp8544
F4565.86
aF3194.41
aaa(lp8545
(lp8546
F4558.94
aF3220.44
aaa(lp8547
g7987
aa(lp8548
g7878
aa(lp8549
(lp8550
F4549.29
aF3296.06
aaa(lp8551
(lp8552
F4555.61
aF3299.48
aaa(lp8553
g8552
aa(lp8554
g8441
ag8442
aa(lp8555
g8441
ag8442
aa(lp8556
g8441
ag8442
aa(lp8557
g8441
ag8442
aa(lp8558
(lp8559
F4526.58
aF3444.61
aaa(lp8560
g8330
aa(lp8561
g8330
aa(lp8562
(lp8563
F4515.7
aF3504.31
aaa(lp8564
g8112
aa(lp8565
(lp8566
F4472.33
aF3603.72
aaa(lp8567
g8566
aa(lp8568
g8566
aa(lp8569
g8566
aaa(lp8570
(lp8571
g8456
ag8457
aa(lp8572
g8456
ag8457
aa(lp8573
g8461
aa(lp8574
g8461
aa(lp8575
g8461
aa(lp8576
g8461
aa(lp8577
g8350
aa(lp8578
g8350
aa(lp8579
g8353
ag8354
aa(lp8580
g8358
aa(lp8581
g8358
aa(lp8582
g8358
aa(lp8583
g8358
aa(lp8584
g8244
aa(lp8585
g8244
aa(lp8586
g8247
ag8248
aa(lp8587
g8247
ag8248
aa(lp8588
g8251
aa(lp8589
g8251
aa(lp8590
g8251
aa(lp8591
(lp8592
F4495.97
aF1822.21
aaa(lp8593
g8592
aa(lp8594
g8143
ag8144
aa(lp8595
g8143
ag8144
aa(lp8596
g8147
aa(lp8597
g8483
aa(lp8598
g8483
aa(lp8599
g8486
aa(lp8600
g8486
aa(lp8601
g8039
ag8040
aa(lp8602
g8039
ag8040
aa(lp8603
g8379
aa(lp8604
g8379
aa(lp8605
g7934
ag7935
aa(lp8606
g7934
ag7935
aa(lp8607
(lp8608
F4583.66
aF2154.62
aaa(lp8609
g8608
aa(lp8610
g8272
aa(lp8611
g8272
aa(lp8612
(lp8613
F4566.55
aF2261.15
aaa(lp8614
g8613
aa(lp8615
g8613
aa(lp8616
g8504
aa(lp8617
g8504
aa(lp8618
g8504
aa(lp8619
g8504
aa(lp8620
g8397
aa(lp8621
g8397
aa(lp8622
g8397
aa(lp8623
g8397
aa(lp8624
g8403
aa(lp8625
g8403
aa(lp8626
g8403
aa(lp8627
g8403
aa(lp8628
g8403
aa(lp8629
g8403
aa(lp8630
g8294
aa(lp8631
g8294
aa(lp8632
g8294
aa(lp8633
g8294
aa(lp8634
g8186
aa(lp8635
g8186
aa(lp8636
g8186
aa(lp8637
g8186
aa(lp8638
g8525
ag8526
aa(lp8639
g8525
ag8526
aa(lp8640
g8525
ag8526
aa(lp8641
(lp8642
F4539.5
aF2872.72
aaa(lp8643
g8642
aa(lp8644
g8642
aa(lp8645
g8196
aa(lp8646
g8196
aa(lp8647
g8196
aa(lp8648
g8087
aa(lp8649
g8087
aa(lp8650
g7978
aa(lp8651
(lp8652
F4582.44
aF3090.11
aa(lp8653
F4592.27
aF3094.33
aaa(lp8654
g8652
ag8653
aa(lp8655
(lp8656
F4570.8
aF3163.5
aaa(lp8657
g8656
aa(lp8658
g8544
aa(lp8659
g8544
aa(lp8660
g8546
aa(lp8661
(lp8662
F4555.12
aF3253.19
aaa(lp8663
(lp8664
F4553.68
aF3257.16
aaa(lp8665
g8550
aa(lp8666
g8552
aa(lp8667
g8552
aa(lp8668
g8441
ag8442
aa(lp8669
g8441
ag8442
aa(lp8670
g8441
ag8442
aa(lp8671
g8441
ag8442
aa(lp8672
g8559
aa(lp8673
(lp8674
F4520.54
aF3459.19
aaa(lp8675
g8563
aa(lp8676
g8563
aa(lp8677
g8563
aa(lp8678
g8563
aa(lp8679
(lp8680
F4500.18
aF3599.27
aaa(lp8681
g8680
aa(lp8682
g8680
aaa(lp8683
(lp8684
g8456
ag8457
aa(lp8685
g8456
ag8457
aa(lp8686
g8461
aa(lp8687
g8461
aa(lp8688
g8461
aa(lp8689
g8461
aa(lp8690
g8350
aa(lp8691
g8350
aa(lp8692
g8353
ag8354
aa(lp8693
g8353
ag8354
aa(lp8694
(lp8695
F4529.21
aF1614.66
aaa(lp8696
g8695
aa(lp8697
g8695
aa(lp8698
(lp8699
F4520.4
aF1666.81
aaa(lp8700
g8699
aa(lp8701
g8247
ag8248
aa(lp8702
g8247
ag8248
aa(lp8703
g8251
aa(lp8704
g8251
aa(lp8705
g8251
aa(lp8706
g8592
aa(lp8707
g8592
aa(lp8708
g8143
ag8144
aa(lp8709
g8143
ag8144
aa(lp8710
g8147
aa(lp8711
g8483
aa(lp8712
g8483
aa(lp8713
g8486
aa(lp8714
g8486
aa(lp8715
g8039
ag8040
aa(lp8716
(lp8717
F4600.06
aF2052.21
aaa(lp8718
g8379
aa(lp8719
(lp8720
F4591.77
aF2104.03
aaa(lp8721
g8720
aa(lp8722
g8608
aa(lp8723
g8608
aa(lp8724
g8608
aa(lp8725
g8613
aa(lp8726
g8613
aa(lp8727
g8613
aa(lp8728
g8613
aa(lp8729
g8613
aa(lp8730
g8504
aa(lp8731
g8504
aa(lp8732
g8504
aa(lp8733
g8504
aa(lp8734
g8397
aa(lp8735
g8397
aa(lp8736
g8397
aa(lp8737
g8397
aa(lp8738
g8397
aa(lp8739
g8403
aa(lp8740
g8403
aa(lp8741
g8403
aa(lp8742
g8403
aa(lp8743
g8403
aa(lp8744
g8294
aa(lp8745
g8294
aa(lp8746
g8294
aa(lp8747
g8294
aa(lp8748
g8186
aa(lp8749
g8186
aa(lp8750
g8186
aa(lp8751
(lp8752
F4540.3
aF2865.16
aaa(lp8753
g8752
aa(lp8754
g8752
aa(lp8755
g8752
aa(lp8756
g8642
aa(lp8757
g8642
aa(lp8758
g8642
aa(lp8759
g8642
aa(lp8760
g8196
aa(lp8761
(lp8762
F4598.66
aF2987.36
aaa(lp8763
g8087
aa(lp8764
g8652
ag8653
aa(lp8765
g8652
ag8653
aa(lp8766
g8652
ag8653
aa(lp8767
g8652
ag8653
aa(lp8768
g8656
aa(lp8769
g8656
aa(lp8770
g8544
aa(lp8771
g8544
aa(lp8772
g8546
aa(lp8773
g8662
aa(lp8774
g8664
aa(lp8775
g8550
aa(lp8776
g8552
aa(lp8777
g8552
aa(lp8778
g8441
ag8442
aa(lp8779
g8441
ag8442
aa(lp8780
g8441
ag8442
aa(lp8781
g8441
ag8442
aa(lp8782
g8559
aa(lp8783
g8674
aa(lp8784
g8674
aa(lp8785
(lp8786
F4525.71
aF3509.65
aaa(lp8787
g8786
aa(lp8788
g8786
aa(lp8789
g8680
aa(lp8790
g8680
aa(lp8791
g8680
aaa(lp8792
(lp8793
g8456
ag8457
aa(lp8794
g8456
ag8457
aa(lp8795
g8456
ag8457
aa(lp8796
(lp8797
F4554.26
aF1459.66
aaa(lp8798
g8797
aa(lp8799
g8797
aa(lp8800
(lp8801
F4545.62
aF1511.03
aaa(lp8802
g8801
aa(lp8803
g8353
ag8354
aa(lp8804
g8353
ag8354
aa(lp8805
g8695
aa(lp8806
g8695
aa(lp8807
g8695
aa(lp8808
g8699
aa(lp8809
g8699
aa(lp8810
g8247
ag8248
aa(lp8811
g8247
ag8248
aa(lp8812
g8251
aa(lp8813
g8251
aa(lp8814
g8251
aa(lp8815
g8592
aa(lp8816
g8592
aa(lp8817
g8143
ag8144
aa(lp8818
(lp8819
F4625.37
aF1894.43
aaa(lp8820
g8147
aa(lp8821
g8483
aa(lp8822
g8483
aa(lp8823
g8486
aa(lp8824
(lp8825
F4608.62
aF1999.28
aaa(lp8826
g8825
aa(lp8827
g8717
aa(lp8828
g8720
aa(lp8829
g8720
aa(lp8830
g8720
aa(lp8831
g8608
aa(lp8832
g8608
aa(lp8833
g8608
aa(lp8834
g8613
aa(lp8835
g8613
aa(lp8836
g8613
aa(lp8837
g8613
aa(lp8838
g8613
aa(lp8839
g8504
aa(lp8840
g8504
aa(lp8841
g8504
aa(lp8842
g8504
aa(lp8843
g8504
aa(lp8844
g8397
aa(lp8845
g8397
aa(lp8846
g8397
aa(lp8847
g8397
aa(lp8848
g8403
aa(lp8849
g8403
aa(lp8850
g8403
aa(lp8851
g8403
aa(lp8852
g8403
aa(lp8853
g8294
aa(lp8854
g8294
aa(lp8855
g8294
aa(lp8856
g8294
aa(lp8857
g8186
aa(lp8858
g8186
aa(lp8859
(lp8860
F4632.25
aF2779.32
aaa(lp8861
g8752
aa(lp8862
g8752
aa(lp8863
g8752
aa(lp8864
g8752
aa(lp8865
g8642
aa(lp8866
g8642
aa(lp8867
g8642
aa(lp8868
g8642
aa(lp8869
g8762
aa(lp8870
g8762
aa(lp8871
g8762
aa(lp8872
g8652
ag8653
aa(lp8873
g8652
ag8653
aa(lp8874
g8652
ag8653
aa(lp8875
g8652
ag8653
aa(lp8876
g8656
aa(lp8877
g8656
aa(lp8878
g8544
aa(lp8879
g8544
aa(lp8880
g8546
aa(lp8881
g8662
aa(lp8882
g8664
aa(lp8883
g8550
aa(lp8884
g8552
aa(lp8885
g8552
aa(lp8886
g8552
aa(lp8887
g8441
ag8442
aa(lp8888
g8441
ag8442
aa(lp8889
(lp8890
F4550.89
aF3417.54
aaa(lp8891
g8559
aa(lp8892
g8674
aa(lp8893
g8674
aa(lp8894
g8786
aa(lp8895
g8786
aa(lp8896
g8786
aa(lp8897
g8680
aa(lp8898
g8680
aa(lp8899
g8680
aaa(lp8900
(lp8901
g8456
ag8457
aa(lp8902
g8456
ag8457
aa(lp8903
g8456
ag8457
aa(lp8904
g8797
aa(lp8905
g8797
aa(lp8906
g8797
aa(lp8907
g8801
aa(lp8908
g8801
aa(lp8909
g8353
ag8354
aa(lp8910
g8353
ag8354
aa(lp8911
g8695
aa(lp8912
g8695
aa(lp8913
g8695
aa(lp8914
g8699
aa(lp8915
g8699
aa(lp8916
g8247
ag8248
aa(lp8917
(lp8918
F4650.15
aF1740.2
aaa(lp8919
g8251
aa(lp8920
g8251
aa(lp8921
(lp8922
F4641.86
aF1792.02
aaa(lp8923
g8592
aa(lp8924
(lp8925
F4633.48
aF1844.17
aaa(lp8926
g8925
aa(lp8927
g8819
aa(lp8928
g8819
aa(lp8929
(lp8930
F4616.91
aF1947.47
aaa(lp8931
g8825
aa(lp8932
g8825
aa(lp8933
g8825
aa(lp8934
g8825
aa(lp8935
g8717
aa(lp8936
g8720
aa(lp8937
g8720
aa(lp8938
g8720
aa(lp8939
g8608
aa(lp8940
g8608
aa(lp8941
g8608
aa(lp8942
g8608
aa(lp8943
g8613
aa(lp8944
g8613
aa(lp8945
g8613
aa(lp8946
g8613
aa(lp8947
g8504
aa(lp8948
g8504
aa(lp8949
g8504
aa(lp8950
g8504
aa(lp8951
g8504
aa(lp8952
g8397
aa(lp8953
g8397
aa(lp8954
g8397
aa(lp8955
g8397
aa(lp8956
g8403
aa(lp8957
g8403
aa(lp8958
g8403
aa(lp8959
(lp8960
F4658.81
aF2584.75
aa(lp8961
F4662.59
aF2583.37
aaa(lp8962
(lp8963
F4655.51
aF2618.06
aaa(lp8964
g8294
aa(lp8965
g8294
aa(lp8966
(lp8967
F4647.42
aF2681.53
aaa(lp8968
g8967
aa(lp8969
g8860
aa(lp8970
g8860
aa(lp8971
g8860
aa(lp8972
g8860
aa(lp8973
(lp8974
F4608.13
aF2870.27
aaa(lp8975
g8974
aa(lp8976
g8974
aa(lp8977
(lp8978
F4614.18
aF2891.89
aa(lp8979
F4616.12
aF2879.85
aaa(lp8980
g8978
ag8979
aa(lp8981
g8978
ag8979
aa(lp8982
g8762
aa(lp8983
g8762
aa(lp8984
g8762
aa(lp8985
g8762
aa(lp8986
g8652
ag8653
aa(lp8987
g8652
ag8653
aa(lp8988
g8652
ag8653
aa(lp8989
g8652
ag8653
aa(lp8990
g8656
aa(lp8991
g8656
aa(lp8992
g8656
aa(lp8993
(lp8994
F4575.43
aF3198.52
aaa(lp8995
g8546
aa(lp8996
(lp8997
F4587.7
aF3253.56
aaa(lp8998
g8664
aa(lp8999
g8550
aa(lp9000
(lp9001
F4575.38
aF3302.9
aaa(lp9002
g9001
aa(lp9003
g9001
aa(lp9004
(lp9005
F4585.59
aF3422.07
aaa(lp9006
g9005
aa(lp9007
g9005
aa(lp9008
g9005
aa(lp9009
g8674
aa(lp9010
g8674
aa(lp9011
g8786
aa(lp9012
g8786
aa(lp9013
g8786
aa(lp9014
g8680
aa(lp9015
g8680
aa(lp9016
g8680
aaa(lp9017
(lp9018
g8456
ag8457
aa(lp9019
g8456
ag8457
aa(lp9020
g8456
ag8457
aa(lp9021
g8797
aa(lp9022
g8797
aa(lp9023
g8797
aa(lp9024
g8801
aa(lp9025
g8801
aa(lp9026
g8353
ag8354
aa(lp9027
(lp9028
F4675.2
aF1585.42
aaa(lp9029
g8695
aa(lp9030
g8695
aa(lp9031
(lp9032
F4667.0
aF1636.46
aaa(lp9033
g8699
aa(lp9034
(lp9035
F4658.97
aF1689.05
aaa(lp9036
g9035
aa(lp9037
g8918
aa(lp9038
g8918
aa(lp9039
g8922
aa(lp9040
g8922
aa(lp9041
g8925
aa(lp9042
g8925
aa(lp9043
g8925
aa(lp9044
g8819
aa(lp9045
g8819
aa(lp9046
g8930
aa(lp9047
g8825
aa(lp9048
g8825
aa(lp9049
g8825
aa(lp9050
g8825
aa(lp9051
g8717
aa(lp9052
g8717
aa(lp9053
g8720
aa(lp9054
g8720
aa(lp9055
g8608
aa(lp9056
g8608
aa(lp9057
g8608
aa(lp9058
g8608
aa(lp9059
g8613
aa(lp9060
g8613
aa(lp9061
g8613
aa(lp9062
g8613
aa(lp9063
g8504
aa(lp9064
g8504
aa(lp9065
g8504
aa(lp9066
g8504
aa(lp9067
g8504
aa(lp9068
(lp9069
F4686.66
aF2439.39
aaa(lp9070
g8397
aa(lp9071
(lp9072
F4677.59
aF2485.32
aaa(lp9073
g9072
aa(lp9074
(lp9075
F4668.85
aF2544.01
aaa(lp9076
g9075
aa(lp9077
g8960
ag8961
aa(lp9078
g8960
ag8961
aa(lp9079
g8963
aa(lp9080
g8963
aa(lp9081
g8967
aa(lp9082
g8967
aa(lp9083
g8967
aa(lp9084
g8860
aa(lp9085
g8860
aa(lp9086
g8860
aa(lp9087
g8860
aa(lp9088
g8974
aa(lp9089
g8974
aa(lp9090
g8974
aa(lp9091
g8978
ag8979
aa(lp9092
g8978
ag8979
aa(lp9093
g8978
ag8979
aa(lp9094
g8762
aa(lp9095
g8762
aa(lp9096
g8762
aa(lp9097
g8762
aa(lp9098
g8762
aa(lp9099
g8652
ag8653
aa(lp9100
g8652
ag8653
aa(lp9101
(lp9102
F4635.94
aF3101.34
aaa(lp9103
g8656
aa(lp9104
g8656
aa(lp9105
(lp9106
F4595.99
aF3201.75
aaa(lp9107
g9106
aa(lp9108
g9106
aa(lp9109
(lp9110
F4613.9
aF3236.55
aaa(lp9111
g9110
aa(lp9112
g8550
aa(lp9113
g9001
aa(lp9114
g9001
aa(lp9115
g9001
aa(lp9116
(lp9117
F4596.75
aF3413.91
aaa(lp9118
g9117
aa(lp9119
g9117
aa(lp9120
g9117
aa(lp9121
g9117
aa(lp9122
g9117
aa(lp9123
g8786
aa(lp9124
(lp9125
F4658.89
aF3538.59
aa(lp9126
F4660.12
aF3530.66
aaa(lp9127
g9125
ag9126
aa(lp9128
g9125
ag9126
aa(lp9129
g8680
aa(lp9130
(lp9131
F4712.35
aF3617.97
aaaa(lp9132
(lp9133
g8456
ag8457
aa(lp9134
g8456
ag8457
aa(lp9135
(lp9136
F4700.68
aF1429.4
aaa(lp9137
g8797
aa(lp9138
g8797
aa(lp9139
(lp9140
F4691.25
aF1481.67
aaa(lp9141
g8801
aa(lp9142
(lp9143
F4683.22
aF1532.93
aaa(lp9144
g9143
aa(lp9145
g9028
aa(lp9146
g9028
aa(lp9147
g9032
aa(lp9148
g9032
aa(lp9149
g9035
aa(lp9150
g9035
aa(lp9151
g9035
aa(lp9152
g8918
aa(lp9153
g8918
aa(lp9154
g8922
aa(lp9155
g8922
aa(lp9156
g8925
aa(lp9157
g8925
aa(lp9158
g8925
aa(lp9159
g8819
aa(lp9160
g8819
aa(lp9161
g8930
aa(lp9162
g8930
aa(lp9163
g8825
aa(lp9164
g8825
aa(lp9165
g8825
aa(lp9166
g8717
aa(lp9167
g8717
aa(lp9168
g8720
aa(lp9169
g8720
aa(lp9170
g8608
aa(lp9171
g8608
aa(lp9172
g8608
aa(lp9173
g8608
aa(lp9174
g8613
aa(lp9175
g8613
aa(lp9176
(lp9177
F4711.62
aF2284.5
aaa(lp9178
g9177
aa(lp9179
g8504
aa(lp9180
g8504
aa(lp9181
g8504
aa(lp9182
(lp9183
F4694.86
aF2388.82
aaa(lp9184
g9069
aa(lp9185
g9069
aa(lp9186
g9069
aa(lp9187
g9072
aa(lp9188
g9072
aa(lp9189
g9075
aa(lp9190
g9075
aa(lp9191
g8960
ag8961
aa(lp9192
g8960
ag8961
aa(lp9193
g8963
aa(lp9194
g8963
aa(lp9195
g8967
aa(lp9196
g8967
aa(lp9197
g8967
aa(lp9198
g8860
aa(lp9199
g8860
aa(lp9200
g8860
aa(lp9201
g8860
aa(lp9202
g8860
aa(lp9203
(lp9204
F4617.53
aF2870.78
aaa(lp9205
g9204
aa(lp9206
(lp9207
F4620.68
aF2890.49
aa(lp9208
F4627.27
aF2890.15
aaa(lp9209
g9207
ag9208
aa(lp9210
g9207
ag9208
aa(lp9211
g8762
aa(lp9212
g8762
aa(lp9213
g8762
aa(lp9214
g8762
aa(lp9215
(lp9216
F4659.59
aF3070.76
aaa(lp9217
g9216
aa(lp9218
g9102
aa(lp9219
g9102
aa(lp9220
g9102
aa(lp9221
(lp9222
F4627.65
aF3152.6
aaa(lp9223
(lp9224
F4624.48
aF3172.28
aaa(lp9225
(lp9226
F4618.84
aF3205.3
aa(lp9227
F4629.82
aF3207.08
aaa(lp9228
g9226
ag9227
aa(lp9229
g9110
aa(lp9230
g9110
aa(lp9231
g8550
aa(lp9232
g9001
aa(lp9233
g9001
aa(lp9234
g9001
aa(lp9235
g9117
aa(lp9236
g9117
aa(lp9237
g9117
aa(lp9238
(lp9239
F4664.74
aF3434.88
aaa(lp9240
g9239
aa(lp9241
g9239
aa(lp9242
g9125
ag9126
aa(lp9243
g9125
ag9126
aa(lp9244
g9125
ag9126
aa(lp9245
g9125
ag9126
aa(lp9246
g9125
ag9126
aa(lp9247
g9131
aaa(lp9248
(lp9249
g9136
aa(lp9250
g9136
aa(lp9251
g9136
aa(lp9252
g9136
aa(lp9253
g9140
aa(lp9254
g9140
aa(lp9255
g9143
aa(lp9256
g9143
aa(lp9257
g9143
aa(lp9258
g9028
aa(lp9259
g9028
aa(lp9260
g9032
aa(lp9261
g9032
aa(lp9262
g9035
aa(lp9263
g9035
aa(lp9264
g9035
aa(lp9265
g8918
aa(lp9266
g8918
aa(lp9267
g8922
aa(lp9268
g8922
aa(lp9269
g8922
aa(lp9270
g8925
aa(lp9271
g8925
aa(lp9272
g8819
aa(lp9273
g8819
aa(lp9274
g8930
aa(lp9275
g8930
aa(lp9276
g8825
aa(lp9277
g8825
aa(lp9278
g8825
aa(lp9279
g8717
aa(lp9280
g8717
aa(lp9281
g8720
aa(lp9282
(lp9283
F4736.84
aF2127.49
aaa(lp9284
g8608
aa(lp9285
g8608
aa(lp9286
(lp9287
F4728.64
aF2177.98
aaa(lp9288
g9287
aa(lp9289
g9177
aa(lp9290
g9177
aa(lp9291
g9177
aa(lp9292
g9177
aa(lp9293
g9177
aa(lp9294
g9183
aa(lp9295
g9183
aa(lp9296
g9183
aa(lp9297
g9069
aa(lp9298
g9069
aa(lp9299
g9069
aa(lp9300
g9072
aa(lp9301
g9072
aa(lp9302
g9075
aa(lp9303
g9075
aa(lp9304
g8960
ag8961
aa(lp9305
g8960
ag8961
aa(lp9306
g8963
aa(lp9307
g8963
aa(lp9308
g8967
aa(lp9309
g8967
aa(lp9310
g8967
aa(lp9311
g8967
aa(lp9312
g8860
aa(lp9313
g8860
aa(lp9314
(lp9315
F4642.36
aF2782.99
aaa(lp9316
g9315
aa(lp9317
g9204
aa(lp9318
g9204
aa(lp9319
(lp9320
F4656.36
aF2885.54
aaa(lp9321
g9320
aa(lp9322
g9320
aa(lp9323
g9320
aa(lp9324
(lp9325
F4670.7
aF3000.71
aaa(lp9326
g9325
aa(lp9327
g9216
aa(lp9328
g9216
aa(lp9329
g9216
aa(lp9330
g9216
aa(lp9331
(lp9332
F4658.87
aF3105.01
aaa(lp9333
g9332
aa(lp9334
g9222
aa(lp9335
g9224
aa(lp9336
g9226
ag9227
aa(lp9337
g9226
ag9227
aa(lp9338
g9110
aa(lp9339
g9110
aa(lp9340
(lp9341
F4683.35
aF3319.62
aaa(lp9342
g9341
aa(lp9343
g9341
aa(lp9344
(lp9345
F4654.2
aF3433.38
aaa(lp9346
g9345
aa(lp9347
g9345
aa(lp9348
g9345
aa(lp9349
g9239
aa(lp9350
g9239
aa(lp9351
g9239
aa(lp9352
g9125
ag9126
aa(lp9353
g9125
ag9126
aa(lp9354
g9125
ag9126
aa(lp9355
g9125
ag9126
aa(lp9356
g9125
ag9126
aa(lp9357
g9131
aaa(lp9358
(lp9359
g9136
aa(lp9360
g9136
aa(lp9361
g9136
aa(lp9362
g9136
aa(lp9363
g9140
aa(lp9364
g9140
aa(lp9365
g9143
aa(lp9366
g9143
aa(lp9367
g9143
aa(lp9368
g9028
aa(lp9369
g9028
aa(lp9370
g9032
aa(lp9371
g9032
aa(lp9372
g9032
aa(lp9373
g9035
aa(lp9374
g9035
aa(lp9375
g8918
aa(lp9376
g8918
aa(lp9377
g8922
aa(lp9378
g8922
aa(lp9379
g8922
aa(lp9380
g8925
aa(lp9381
g8925
aa(lp9382
g8819
aa(lp9383
g8819
aa(lp9384
g8930
aa(lp9385
g8930
aa(lp9386
g8825
aa(lp9387
g8825
aa(lp9388
(lp9389
F4753.69
aF2022.52
aaa(lp9390
g8717
aa(lp9391
(lp9392
F4745.13
aF2075.68
aaa(lp9393
g9283
aa(lp9394
g9283
aa(lp9395
g9283
aa(lp9396
g9287
aa(lp9397
g9287
aa(lp9398
g9287
aa(lp9399
g9177
aa(lp9400
g9177
aa(lp9401
g9177
aa(lp9402
g9177
aa(lp9403
g9177
aa(lp9404
g9183
aa(lp9405
g9183
aa(lp9406
g9183
aa(lp9407
g9069
aa(lp9408
g9069
aa(lp9409
g9069
aa(lp9410
g9072
aa(lp9411
g9072
aa(lp9412
g9075
aa(lp9413
g9075
aa(lp9414
g9075
aa(lp9415
g8960
ag8961
aa(lp9416
g8963
aa(lp9417
g8963
aa(lp9418
g8967
aa(lp9419
g8967
aa(lp9420
g8967
aa(lp9421
(lp9422
F4712.67
aF2741.62
aaa(lp9423
g9422
aa(lp9424
g8860
aa(lp9425
g9315
aa(lp9426
g9315
aa(lp9427
g9204
aa(lp9428
g9204
aa(lp9429
g9320
aa(lp9430
g9320
aa(lp9431
g9320
aa(lp9432
g9325
aa(lp9433
g9325
aa(lp9434
g9325
aa(lp9435
g9325
aa(lp9436
g9216
aa(lp9437
g9216
aa(lp9438
g9216
aa(lp9439
g9332
aa(lp9440
g9332
aa(lp9441
g9222
aa(lp9442
g9224
aa(lp9443
g9226
ag9227
aa(lp9444
(lp9445
F4709.94
aF3219.65
aaa(lp9446
(lp9447
F4704.65
aF3253.45
aa(lp9448
F4704.91
aF3251.23
aaa(lp9449
g9341
aa(lp9450
g9341
aa(lp9451
g9341
aa(lp9452
g9341
aa(lp9453
g9341
aa(lp9454
(lp9455
F4676.26
aF3430.34
aa(lp9456
F4676.79
aF3426.92
aaa(lp9457
g9455
ag9456
aa(lp9458
g9455
ag9456
aa(lp9459
(lp9460
F4675.46
aF3435.27
aaa(lp9461
g9460
aa(lp9462
(lp9463
F4699.95
aF3479.96
aaa(lp9464
(lp9465
F4671.19
aF3532.7
aa(lp9466
F4674.97
aF3534.96
aa(lp9467
F4677.95
aF3537.98
aa(lp9468
F4681.03
aF3540.99
aa(lp9469
F4684.8
aF3541.75
aa(lp9470
F4688.49
aF3540.24
aaa(lp9471
g9465
ag9466
ag9467
ag9468
ag9469
ag9470
aa(lp9472
g9465
ag9466
ag9467
ag9468
ag9469
ag9470
aa(lp9473
g9465
ag9466
ag9467
ag9468
ag9469
ag9470
aa(lp9474
g9131
aa(lp9475
g9131
aaa(lp9476
(lp9477
g9136
aa(lp9478
g9136
aa(lp9479
g9136
aa(lp9480
g9136
aa(lp9481
g9140
aa(lp9482
g9140
aa(lp9483
g9140
aa(lp9484
g9143
aa(lp9485
g9143
aa(lp9486
g9028
aa(lp9487
g9028
aa(lp9488
g9032
aa(lp9489
g9032
aa(lp9490
g9032
aa(lp9491
g9035
aa(lp9492
g9035
aa(lp9493
g8918
aa(lp9494
g8918
aa(lp9495
g8922
aa(lp9496
g8922
aa(lp9497
g8922
aa(lp9498
g8925
aa(lp9499
(lp9500
F4779.08
aF1867.52
aaa(lp9501
g8819
aa(lp9502
(lp9503
F4770.79
aF1917.45
aaa(lp9504
g8930
aa(lp9505
g8930
aa(lp9506
(lp9507
F4761.98
aF1970.71
aaa(lp9508
g9389
aa(lp9509
g9389
aa(lp9510
g9389
aa(lp9511
g9392
aa(lp9512
g9283
aa(lp9513
g9283
aa(lp9514
g9283
aa(lp9515
g9287
aa(lp9516
g9287
aa(lp9517
g9287
aa(lp9518
g9177
aa(lp9519
g9177
aa(lp9520
g9177
aa(lp9521
g9177
aa(lp9522
g9177
aa(lp9523
g9183
aa(lp9524
g9183
aa(lp9525
g9183
aa(lp9526
g9183
aa(lp9527
g9069
aa(lp9528
g9069
aa(lp9529
g9072
aa(lp9530
g9072
aa(lp9531
g9075
aa(lp9532
g9075
aa(lp9533
g9075
aa(lp9534
g8960
ag8961
aa(lp9535
g8963
aa(lp9536
g8963
aa(lp9537
g8967
aa(lp9538
g8967
aa(lp9539
(lp9540
F4720.96
aF2692.92
aaa(lp9541
g9422
aa(lp9542
g9422
aa(lp9543
g9422
aa(lp9544
(lp9545
F4704.3
aF2792.88
aaa(lp9546
g9545
aa(lp9547
g9545
aa(lp9548
(lp9549
F4692.3
aF2873.72
aaa(lp9550
g9549
aa(lp9551
g9549
aa(lp9552
g9549
aa(lp9553
g9325
aa(lp9554
g9325
aa(lp9555
g9325
aa(lp9556
g9325
aa(lp9557
g9216
aa(lp9558
g9216
aa(lp9559
(lp9560
F4726.61
aF3115.9
aaa(lp9561
g9560
aa(lp9562
g9560
aa(lp9563
(lp9564
F4721.23
aF3149.26
aaa(lp9565
(lp9566
F4715.32
aF3186.29
aa(lp9567
F4718.4
aF3167.28
aaa(lp9568
g9445
aa(lp9569
g9445
aa(lp9570
g9447
ag9448
aa(lp9571
g9447
ag9448
aa(lp9572
g9341
aa(lp9573
g9341
aa(lp9574
(lp9575
F4693.01
aF3323.52
aaa(lp9576
g9575
aa(lp9577
g9575
aa(lp9578
(lp9579
F4707.8
aF3431.92
aaa(lp9580
g9579
aa(lp9581
g9460
aa(lp9582
(lp9583
F4702.33
aF3465.39
aaa(lp9584
g9463
aa(lp9585
g9463
aa(lp9586
(lp9587
F4693.86
aF3531.94
aa(lp9588
F4697.55
aF3530.44
aa(lp9589
F4701.33
aF3531.2
aa(lp9590
F4704.4
aF3534.21
aa(lp9591
F4706.68
aF3542.5
aa(lp9592
F4709.67
aF3545.52
aaa(lp9593
g9587
ag9588
ag9589
ag9590
ag9591
ag9592
aa(lp9594
g9587
ag9588
ag9589
ag9590
ag9591
ag9592
aa(lp9595
g9131
aa(lp9596
g9131
aaa(lp9597
(lp9598
g9136
aa(lp9599
g9136
aa(lp9600
g9136
aa(lp9601
g9136
aa(lp9602
g9140
aa(lp9603
g9140
aa(lp9604
g9140
aa(lp9605
g9143
aa(lp9606
g9143
aa(lp9607
g9028
aa(lp9608
g9028
aa(lp9609
g9032
aa(lp9610
g9032
aa(lp9611
g9032
aa(lp9612
g9035
aa(lp9613
(lp9614
F4803.34
aF1712.29
aaa(lp9615
g8918
aa(lp9616
(lp9617
F4795.23
aF1763.33
aaa(lp9618
g8922
aa(lp9619
g8922
aa(lp9620
(lp9621
F4787.2
aF1815.03
aaa(lp9622
g9500
aa(lp9623
g9500
aa(lp9624
g9500
aa(lp9625
g9503
aa(lp9626
g9503
aa(lp9627
g9507
aa(lp9628
g9507
aa(lp9629
g9389
aa(lp9630
g9389
aa(lp9631
g9389
aa(lp9632
g9392
aa(lp9633
g9283
aa(lp9634
g9283
aa(lp9635
g9283
aa(lp9636
g9287
aa(lp9637
g9287
aa(lp9638
g9287
aa(lp9639
(lp9640
F4760.51
aF2218.89
aaa(lp9641
g9177
aa(lp9642
g9177
aa(lp9643
g9177
aa(lp9644
g9177
aa(lp9645
g9183
aa(lp9646
g9183
aa(lp9647
g9183
aa(lp9648
g9183
aa(lp9649
g9069
aa(lp9650
(lp9651
F4753.18
aF2445.61
aaa(lp9652
g9072
aa(lp9653
(lp9654
F4749.46
aF2496.4
aaa(lp9655
g9654
aa(lp9656
(lp9657
F4742.4
aF2535.88
aaa(lp9658
g9657
aa(lp9659
g8960
ag8961
aa(lp9660
g8963
aa(lp9661
g9540
aa(lp9662
g9540
aa(lp9663
g9540
aa(lp9664
g9540
aa(lp9665
g9540
aa(lp9666
g9422
aa(lp9667
g9422
aa(lp9668
g9545
aa(lp9669
g9545
aa(lp9670
(lp9671
F4733.85
aF2888.14
aaa(lp9672
g9671
aa(lp9673
g9671
aa(lp9674
g9671
aa(lp9675
g9671
aa(lp9676
g9671
aa(lp9677
g9325
aa(lp9678
g9325
aa(lp9679
(lp9680
F4742.22
aF3012.69
aaa(lp9681
g9680
aa(lp9682
g9560
aa(lp9683
g9560
aa(lp9684
g9560
aa(lp9685
g9560
aa(lp9686
g9564
aa(lp9687
g9566
ag9567
aa(lp9688
g9566
ag9567
aa(lp9689
g9445
aa(lp9690
g9447
ag9448
aa(lp9691
(lp9692
F4741.9
aF3259.32
aaa(lp9693
g9692
aa(lp9694
g9341
aa(lp9695
g9575
aa(lp9696
g9575
aa(lp9697
(lp9698
F4751.4
aF3385.11
aaa(lp9699
g9579
aa(lp9700
g9579
aa(lp9701
(lp9702
F4742.76
aF3437.48
aaa(lp9703
g9583
aa(lp9704
g9463
aa(lp9705
(lp9706
F4713.44
aF3546.27
aa(lp9707
F4717.22
aF3544.0
aa(lp9708
F4722.5
aF3536.47
aa(lp9709
F4726.28
aF3534.96
aa(lp9710
F4730.05
aF3535.71
aa(lp9711
F4733.04
aF3538.73
aa(lp9712
F4735.32
aF3547.03
aaa(lp9713
g9706
ag9707
ag9708
ag9709
ag9710
ag9711
ag9712
aa(lp9714
(lp9715
F4719.41
aF3550.8
aa(lp9716
F4721.7
aF3553.81
aa(lp9717
F4722.49
aF3557.58
aaa(lp9718
g9715
ag9716
ag9717
aa(lp9719
g9131
aa(lp9720
g9131
aaa(lp9721
(lp9722
g9136
aa(lp9723
g9136
aa(lp9724
g9136
aa(lp9725
g9136
aa(lp9726
g9140
aa(lp9727
g9140
aa(lp9728
g9140
aa(lp9729
g9143
aa(lp9730
(lp9731
F4828.83
aF1555.95
aaa(lp9732
g9028
aa(lp9733
(lp9734
F4820.1
aF1608.66
aaa(lp9735
g9032
aa(lp9736
g9032
aa(lp9737
(lp9738
F4811.72
aF1659.47
aaa(lp9739
g9614
aa(lp9740
g9614
aa(lp9741
g9614
aa(lp9742
g9617
aa(lp9743
g9617
aa(lp9744
g9621
aa(lp9745
g9621
aa(lp9746
g9500
aa(lp9747
g9500
aa(lp9748
g9500
aa(lp9749
g9503
aa(lp9750
g9503
aa(lp9751
g9507
aa(lp9752
g9507
aa(lp9753
g9389
aa(lp9754
g9389
aa(lp9755
g9389
aa(lp9756
g9392
aa(lp9757
g9392
aa(lp9758
g9283
aa(lp9759
g9283
aa(lp9760
g9287
aa(lp9761
g9287
aa(lp9762
g9640
aa(lp9763
g9640
aa(lp9764
g9640
aa(lp9765
g9177
aa(lp9766
g9177
aa(lp9767
g9177
aa(lp9768
g9183
aa(lp9769
g9183
aa(lp9770
g9183
aa(lp9771
g9651
aa(lp9772
g9651
aa(lp9773
g9651
aa(lp9774
g9651
aa(lp9775
g9654
aa(lp9776
g9654
aa(lp9777
g9657
aa(lp9778
g9657
aa(lp9779
g9657
aa(lp9780
(lp9781
F4808.09
aF2606.52
aaa(lp9782
g9781
aa(lp9783
g9540
aa(lp9784
g9540
aa(lp9785
g9540
aa(lp9786
g9540
aa(lp9787
(lp9788
F4784.63
aF2754.08
aaa(lp9789
g9788
aa(lp9790
g9545
aa(lp9791
(lp9792
F4775.55
aF2804.71
aaa(lp9793
(lp9794
F4771.23
aF2831.69
aaa(lp9795
(lp9796
F4761.34
aF2892.43
aaa(lp9797
g9796
aa(lp9798
(lp9799
F4758.09
aF2911.83
aa(lp9800
F4759.15
aF2906.87
aa(lp9801
F4759.96
aF2901.5
aaa(lp9802
g9799
ag9800
ag9801
aa(lp9803
g9799
ag9800
ag9801
aa(lp9804
g9680
aa(lp9805
g9680
aa(lp9806
g9680
aa(lp9807
g9680
aa(lp9808
g9680
aa(lp9809
g9560
aa(lp9810
g9560
aa(lp9811
g9560
aa(lp9812
g9564
aa(lp9813
g9566
ag9567
aa(lp9814
(lp9815
F4759.51
aF3193.18
aaa(lp9816
g9815
aa(lp9817
g9692
aa(lp9818
g9692
aa(lp9819
g9692
aa(lp9820
g9692
aa(lp9821
(lp9822
F4763.91
aF3332.71
aaa(lp9823
g9698
aa(lp9824
g9698
aa(lp9825
g9698
aa(lp9826
g9702
aa(lp9827
g9702
aa(lp9828
g9702
aa(lp9829
(lp9830
F4755.82
aF3490.13
aaa(lp9831
g9830
aa(lp9832
(lp9833
F4751.14
aF3541.75
aa(lp9834
F4754.92
aF3539.49
aa(lp9835
F4758.69
aF3540.24
aaa(lp9836
(lp9837
F4738.3
aF3550.04
aa(lp9838
F4742.08
aF3550.8
aa(lp9839
F4745.86
aF3548.53
aaa(lp9840
g9837
ag9838
ag9839
aa(lp9841
g9837
ag9838
ag9839
aa(lp9842
g9131
aaa(lp9843
(lp9844
g9136
aa(lp9845
g9136
aa(lp9846
g9136
aa(lp9847
(lp9848
F4844.01
aF1452.03
aaa(lp9849
g9140
aa(lp9850
g9140
aa(lp9851
(lp9852
F4836.59
aF1505.02
aaa(lp9853
g9731
aa(lp9854
g9731
aa(lp9855
g9731
aa(lp9856
g9734
aa(lp9857
g9734
aa(lp9858
g9738
aa(lp9859
g9738
aa(lp9860
g9614
aa(lp9861
g9614
aa(lp9862
g9614
aa(lp9863
g9617
aa(lp9864
g9617
aa(lp9865
g9621
aa(lp9866
g9621
aa(lp9867
g9500
aa(lp9868
g9500
aa(lp9869
g9500
aa(lp9870
g9503
aa(lp9871
g9503
aa(lp9872
g9507
aa(lp9873
g9507
aa(lp9874
g9507
aa(lp9875
g9389
aa(lp9876
g9389
aa(lp9877
g9392
aa(lp9878
g9392
aa(lp9879
g9283
aa(lp9880
(lp9881
F4766.07
aF2184.2
aaa(lp9882
g9881
aa(lp9883
g9881
aa(lp9884
g9881
aa(lp9885
g9640
aa(lp9886
g9640
aa(lp9887
g9177
aa(lp9888
(lp9889
F4856.15
aF2307.55
aaa(lp9890
g9889
aa(lp9891
g9183
aa(lp9892
g9183
aa(lp9893
g9183
aa(lp9894
g9651
aa(lp9895
g9651
aa(lp9896
g9651
aa(lp9897
g9651
aa(lp9898
g9654
aa(lp9899
g9654
aa(lp9900
g9657
aa(lp9901
g9657
aa(lp9902
g9781
aa(lp9903
g9781
aa(lp9904
g9781
aa(lp9905
g9781
aa(lp9906
(lp9907
F4792.57
aF2704.71
aaa(lp9908
g9907
aa(lp9909
g9788
aa(lp9910
g9788
aa(lp9911
g9788
aa(lp9912
g9792
aa(lp9913
g9792
aa(lp9914
g9794
aa(lp9915
g9794
aa(lp9916
(lp9917
F4762.06
aF2887.67
aa(lp9918
F4762.94
aF2882.84
aaa(lp9919
g9799
ag9800
ag9801
aa(lp9920
g9799
ag9800
ag9801
aa(lp9921
g9799
ag9800
ag9801
aa(lp9922
g9680
aa(lp9923
g9680
aa(lp9924
g9680
aa(lp9925
g9680
aa(lp9926
g9680
aa(lp9927
g9560
aa(lp9928
g9560
aa(lp9929
(lp9930
F4772.89
aF3157.49
aaa(lp9931
g9930
aa(lp9932
g9930
aa(lp9933
g9815
aa(lp9934
(lp9935
F4782.24
aF3231.55
aaa(lp9936
g9935
aa(lp9937
g9692
aa(lp9938
g9692
aa(lp9939
g9822
aa(lp9940
g9822
aa(lp9941
g9822
aa(lp9942
g9698
aa(lp9943
g9698
aa(lp9944
(lp9945
F4766.57
aF3441.53
aaa(lp9946
g9945
aa(lp9947
g9945
aa(lp9948
g9830
aa(lp9949
(lp9950
F4761.68
aF3543.26
aa(lp9951
F4779.86
aF3545.15
aa(lp9952
F4783.2
aF3544.09
aaa(lp9953
g9950
ag9951
ag9952
aa(lp9954
(lp9955
F4764.66
aF3552.4
aa(lp9956
F4766.94
aF3554.67
aa(lp9957
F4769.58
aF3555.29
aa(lp9958
F4773.45
aF3553.28
aaa(lp9959
g9955
ag9956
ag9957
ag9958
aa(lp9960
g9955
ag9956
ag9957
ag9958
aa(lp9961
g9131
aaa(lp9962
(lp9963
g9848
aa(lp9964
g9848
aa(lp9965
g9848
aa(lp9966
g9848
aa(lp9967
g9848
aa(lp9968
g9852
aa(lp9969
g9852
aa(lp9970
g9731
aa(lp9971
g9731
aa(lp9972
g9731
aa(lp9973
g9734
aa(lp9974
g9734
aa(lp9975
g9738
aa(lp9976
g9738
aa(lp9977
g9614
aa(lp9978
g9614
aa(lp9979
g9614
aa(lp9980
g9617
aa(lp9981
g9617
aa(lp9982
g9621
aa(lp9983
g9621
aa(lp9984
g9621
aa(lp9985
g9500
aa(lp9986
g9500
aa(lp9987
g9503
aa(lp9988
(lp9989
F4803.2
aF1951.25
aaa(lp9990
g9989
aa(lp9991
(lp9992
F4801.69
aF1977.27
aaa(lp9993
g9992
aa(lp9994
g9389
aa(lp9995
g9389
aa(lp9996
g9392
aa(lp9997
(lp9998
F4833.88
aF2089.35
aaa(lp9999
g9998
aa(lp10000
(lp10001
F4826.37
aF2143.28
aaa(lp10002
g9881
aa(lp10003
g9881
aa(lp10004
g9881
aa(lp10005
g9640
aa(lp10006
g9640
aa(lp10007
g9889
aa(lp10008
g9889
aa(lp10009
g9889
aa(lp10010
g9889
aa(lp10011
(lp10012
F4839.57
aF2412.26
aaa(lp10013
g10012
aa(lp10014
g10012
aa(lp10015
(lp10016
F4831.99
aF2458.33
aaa(lp10017
g10016
aa(lp10018
g10016
aa(lp10019
(lp10020
F4823.7
aF2508.67
aaa(lp10021
g10020
aa(lp10022
g9657
aa(lp10023
g9781
aa(lp10024
g9781
aa(lp10025
g9781
aa(lp10026
g9781
aa(lp10027
g9781
aa(lp10028
g9907
aa(lp10029
g9907
aa(lp10030
g9907
aa(lp10031
g9788
aa(lp10032
g9788
aa(lp10033
g9792
aa(lp10034
g9792
aa(lp10035
g9794
aa(lp10036
g9794
aa(lp10037
g9917
ag9918
aa(lp10038
(lp10039
F4815.29
aF2910.02
aa(lp10040
F4816.0
aF2900.96
aaa(lp10041
g10039
ag10040
aa(lp10042
g10039
ag10040
aa(lp10043
(lp10044
F4848.29
aF2973.96
aaa(lp10045
g9680
aa(lp10046
g9680
aa(lp10047
g9680
aa(lp10048
g9680
aa(lp10049
(lp10050
F4817.18
aF3130.36
aaa(lp10051
g10050
aa(lp10052
g10050
aa(lp10053
g9930
aa(lp10054
(lp10055
F4790.53
aF3179.62
aa(lp10056
F4808.81
aF3182.4
aaa(lp10057
g10055
ag10056
aa(lp10058
g9935
aa(lp10059
g9935
aa(lp10060
g9692
aa(lp10061
(lp10062
F4843.36
aF3298.19
aaa(lp10063
g9822
aa(lp10064
g9822
aa(lp10065
g9822
aa(lp10066
g9698
aa(lp10067
(lp10068
F4825.99
aF3401.88
aaa(lp10069
g9945
aa(lp10070
g9945
aa(lp10071
g9945
aa(lp10072
(lp10073
F4810.03
aF3499.44
aaa(lp10074
(lp10075
F4786.98
aF3545.38
aa(lp10076
F4803.24
aF3543.38
aaa(lp10077
g10075
ag10076
aa(lp10078
(lp10079
F4790.49
aF3550.22
aa(lp10080
F4793.21
aF3552.69
aa(lp10081
F4798.05
aF3553.99
aa(lp10082
F4802.08
aF3561.76
aa(lp10083
F4802.7
aF3554.35
aaa(lp10084
g10079
ag10080
ag10081
ag10082
ag10083
aa(lp10085
g10079
ag10080
ag10081
ag10082
ag10083
aa(lp10086
g10079
ag10080
ag10081
ag10082
ag10083
aaa(lp10087
(lp10088
g9848
aa(lp10089
g9848
aa(lp10090
g9848
aa(lp10091
g9848
aa(lp10092
g9848
aa(lp10093
g9852
aa(lp10094
g9852
aa(lp10095
g9731
aa(lp10096
g9731
aa(lp10097
g9731
aa(lp10098
g9734
aa(lp10099
g9734
aa(lp10100
g9738
aa(lp10101
g9738
aa(lp10102
g9738
aa(lp10103
g9614
aa(lp10104
g9614
aa(lp10105
g9617
aa(lp10106
g9617
aa(lp10107
g9621
aa(lp10108
g9621
aa(lp10109
g9621
aa(lp10110
g9500
aa(lp10111
g9500
aa(lp10112
g9503
aa(lp10113
g9989
aa(lp10114
g9989
aa(lp10115
g9992
aa(lp10116
g9992
aa(lp10117
g9389
aa(lp10118
g9998
aa(lp10119
g9998
aa(lp10120
g9998
aa(lp10121
g9998
aa(lp10122
g10001
aa(lp10123
g10001
aa(lp10124
g9881
aa(lp10125
(lp10126
F4846.11
aF2197.43
aaa(lp10127
(lp10128
F4838.8
aF2231.02
aaa(lp10129
g10128
aa(lp10130
g9889
aa(lp10131
g9889
aa(lp10132
g9889
aa(lp10133
g9889
aa(lp10134
g10012
aa(lp10135
g10012
aa(lp10136
g10012
aa(lp10137
g10016
aa(lp10138
g10016
aa(lp10139
g10016
aa(lp10140
g10020
aa(lp10141
g10020
aa(lp10142
g10020
aa(lp10143
g9781
aa(lp10144
g9781
aa(lp10145
g9781
aa(lp10146
g9781
aa(lp10147
g9781
aa(lp10148
g9907
aa(lp10149
g9907
aa(lp10150
g9907
aa(lp10151
g9788
aa(lp10152
(lp10153
F4836.03
aF2763.19
aaa(lp10154
g10153
aa(lp10155
g9792
aa(lp10156
g9794
aa(lp10157
g10039
ag10040
aa(lp10158
g10039
ag10040
aa(lp10159
g10039
ag10040
aa(lp10160
g10039
ag10040
aa(lp10161
g10039
ag10040
aa(lp10162
g10044
aa(lp10163
g10044
aa(lp10164
g9680
aa(lp10165
(lp10166
F4886.83
aF3036.26
aaa(lp10167
g10050
aa(lp10168
g10050
aa(lp10169
g10050
aa(lp10170
g10050
aa(lp10171
g10050
aa(lp10172
g10055
ag10056
aa(lp10173
g10055
ag10056
aa(lp10174
g9935
aa(lp10175
(lp10176
F4855.07
aF3242.73
aa(lp10177
F4855.87
aF3232.88
aaa(lp10178
g10176
ag10177
aa(lp10179
g10062
aa(lp10180
g10062
aa(lp10181
g9822
aa(lp10182
(lp10183
F4835.25
aF3344.97
aa(lp10184
F4847.02
aF3346.26
aaa(lp10185
g10068
aa(lp10186
g10068
aa(lp10187
g10068
aa(lp10188
(lp10189
F4817.79
aF3447.59
aaa(lp10190
g10189
aa(lp10191
g10073
aa(lp10192
g10073
aa(lp10193
g10075
ag10076
aa(lp10194
(lp10195
F4813.95
aF3553.76
aaa(lp10196
g10195
aa(lp10197
g10195
aa(lp10198
g10195
aaa(lp10199
(lp10200
g9848
aa(lp10201
g9848
aa(lp10202
g9848
aa(lp10203
g9848
aa(lp10204
g9848
aa(lp10205
g9852
aa(lp10206
g9852
aa(lp10207
g9852
aa(lp10208
g9731
aa(lp10209
g9731
aa(lp10210
g9734
aa(lp10211
g9734
aa(lp10212
g9738
aa(lp10213
g9738
aa(lp10214
g9738
aa(lp10215
g9614
aa(lp10216
g9614
aa(lp10217
g9617
aa(lp10218
g9617
aa(lp10219
g9621
aa(lp10220
g9621
aa(lp10221
g9621
aa(lp10222
g9500
aa(lp10223
(lp10224
F4891.64
aF1885.64
aaa(lp10225
g9503
aa(lp10226
g9989
aa(lp10227
g9989
aa(lp10228
g9992
aa(lp10229
(lp10230
F4905.9
aF1994.28
aaa(lp10231
g10230
aa(lp10232
g9998
aa(lp10233
g9998
aa(lp10234
g9998
aa(lp10235
g9998
aa(lp10236
g10001
aa(lp10237
g10001
aa(lp10238
g10126
aa(lp10239
g10126
aa(lp10240
g10128
aa(lp10241
g10128
aa(lp10242
g9889
aa(lp10243
g9889
aa(lp10244
g9889
aa(lp10245
g9889
aa(lp10246
g10012
aa(lp10247
g10012
aa(lp10248
g10012
aa(lp10249
g10012
aa(lp10250
g10016
aa(lp10251
g10016
aa(lp10252
g10020
aa(lp10253
g10020
aa(lp10254
g10020
aa(lp10255
g9781
aa(lp10256
g9781
aa(lp10257
g9781
aa(lp10258
g9781
aa(lp10259
(lp10260
F4843.88
aF2713.22
aaa(lp10261
g10260
aa(lp10262
g10260
aa(lp10263
g10260
aa(lp10264
g10153
aa(lp10265
g10153
aa(lp10266
g10153
aa(lp10267
g10153
aa(lp10268
(lp10269
F4871.12
aF2848.48
aaa(lp10270
g10269
aa(lp10271
(lp10272
F4880.16
aF2875.32
aaa(lp10273
g10039
ag10040
aa(lp10274
(lp10275
F4862.73
aF2926.61
aa(lp10276
F4871.78
aF2925.85
aa(lp10277
F4872.75
aF2919.3
aaa(lp10278
g10044
aa(lp10279
g10044
aa(lp10280
g10044
aa(lp10281
g10044
aa(lp10282
g10166
aa(lp10283
g10166
aa(lp10284
g10050
aa(lp10285
g10050
aa(lp10286
g10050
aa(lp10287
g10050
aa(lp10288
g10055
ag10056
aa(lp10289
(lp10290
F4862.57
aF3191.18
aaa(lp10291
g10176
ag10177
aa(lp10292
g10176
ag10177
aa(lp10293
g10176
ag10177
aa(lp10294
g10062
aa(lp10295
g10062
aa(lp10296
g10183
ag10184
aa(lp10297
g10183
ag10184
aa(lp10298
g10183
ag10184
aa(lp10299
g10068
aa(lp10300
g10068
aa(lp10301
g10189
aa(lp10302
g10189
aa(lp10303
g10073
aa(lp10304
g10073
aa(lp10305
g10075
ag10076
aa(lp10306
g10195
aa(lp10307
g10195
aa(lp10308
g10195
aa(lp10309
g10195
aaa(lp10310
(lp10311
g9848
aa(lp10312
g9848
aa(lp10313
g9848
aa(lp10314
g9848
aa(lp10315
g9848
aa(lp10316
g9852
aa(lp10317
g9852
aa(lp10318
g9852
aa(lp10319
g9731
aa(lp10320
g9731
aa(lp10321
g9734
aa(lp10322
g9734
aa(lp10323
g9738
aa(lp10324
g9738
aa(lp10325
g9738
aa(lp10326
g9614
aa(lp10327
g9614
aa(lp10328
g9617
aa(lp10329
(lp10330
F4900.02
aF1834.16
aaa(lp10331
g10330
aa(lp10332
g10330
aa(lp10333
g10330
aa(lp10334
g10224
aa(lp10335
g10224
aa(lp10336
g10224
aa(lp10337
g10224
aa(lp10338
g9989
aa(lp10339
g10230
aa(lp10340
g10230
aa(lp10341
g10230
aa(lp10342
g10230
aa(lp10343
(lp10344
F4889.14
aF2097.91
aaa(lp10345
g10344
aa(lp10346
g10344
aa(lp10347
g10001
aa(lp10348
(lp10349
F4872.56
aF2201.88
aaa(lp10350
g10349
aa(lp10351
g10349
aa(lp10352
g10128
aa(lp10353
g10128
aa(lp10354
g9889
aa(lp10355
g9889
aa(lp10356
g9889
aa(lp10357
g9889
aa(lp10358
(lp10359
F4926.78
aF2355.33
aaa(lp10360
g10012
aa(lp10361
g10012
aa(lp10362
g10012
aa(lp10363
g10016
aa(lp10364
g10016
aa(lp10365
g10020
aa(lp10366
g10020
aa(lp10367
g10020
aa(lp10368
g9781
aa(lp10369
g9781
aa(lp10370
g9781
aa(lp10371
(lp10372
F4952.53
aF2629.65
aaa(lp10373
g10260
aa(lp10374
g10260
aa(lp10375
g10260
aa(lp10376
(lp10377
F4894.4
aF2721.27
aaa(lp10378
g10153
aa(lp10379
g10153
aa(lp10380
g10153
aa(lp10381
g10269
aa(lp10382
g10269
aa(lp10383
g10269
aa(lp10384
g10272
aa(lp10385
(lp10386
F4874.07
aF2910.4
aa(lp10387
F4875.57
aF2900.21
aaa(lp10388
g10275
ag10276
ag10277
aa(lp10389
g10275
ag10276
ag10277
aa(lp10390
g10044
aa(lp10391
(lp10392
F4899.69
aF2985.12
aaa(lp10393
g10392
aa(lp10394
g10166
aa(lp10395
g10166
aa(lp10396
(lp10397
F4870.86
aF3138.92
aaa(lp10398
g10397
aa(lp10399
g10397
aa(lp10400
g10397
aa(lp10401
g10290
aa(lp10402
g10290
aa(lp10403
g10290
aa(lp10404
g10176
ag10177
aa(lp10405
g10176
ag10177
aa(lp10406
g10062
aa(lp10407
g10062
aa(lp10408
g10183
ag10184
aa(lp10409
g10183
ag10184
aa(lp10410
g10183
ag10184
aa(lp10411
g10068
aa(lp10412
(lp10413
F4926.57
aF3423.14
aaa(lp10414
g10189
aa(lp10415
(lp10416
F4890.18
aF3459.63
aaa(lp10417
g10073
aa(lp10418
g10073
aa(lp10419
g10075
ag10076
aa(lp10420
g10195
aa(lp10421
g10195
aa(lp10422
g10195
aa(lp10423
g10195
aaa(lp10424
(lp10425
g9848
aa(lp10426
g9848
aa(lp10427
g9848
aa(lp10428
g9848
aa(lp10429
g9848
aa(lp10430
g9852
aa(lp10431
g9852
aa(lp10432
g9852
aa(lp10433
g9731
aa(lp10434
(lp10435
F4972.5
aF1579.64
aaa(lp10436
g9734
aa(lp10437
(lp10438
F4963.98
aF1632.59
aaa(lp10439
g9738
aa(lp10440
g9738
aa(lp10441
(lp10442
F4949.65
aF1721.74
aaa(lp10443
g10442
aa(lp10444
g10442
aa(lp10445
g10330
aa(lp10446
g10330
aa(lp10447
g10330
aa(lp10448
g10330
aa(lp10449
g10330
aa(lp10450
g10224
aa(lp10451
g10224
aa(lp10452
g10224
aa(lp10453
g10224
aa(lp10454
g10230
aa(lp10455
g10230
aa(lp10456
g10230
aa(lp10457
g10230
aa(lp10458
g10230
aa(lp10459
g10344
aa(lp10460
g10344
aa(lp10461
g10344
aa(lp10462
g10344
aa(lp10463
g10349
aa(lp10464
g10349
aa(lp10465
g10349
aa(lp10466
g10128
aa(lp10467
g10128
aa(lp10468
g9889
aa(lp10469
g9889
aa(lp10470
(lp10471
F4933.65
aF2318.97
aaa(lp10472
g10359
aa(lp10473
g10359
aa(lp10474
g10359
aa(lp10475
g10012
aa(lp10476
(lp10477
F4952.56
aF2435.06
aa(lp10478
F4952.74
aF2429.05
aaa(lp10479
g10016
aa(lp10480
(lp10481
F4945.59
aF2477.98
aaa(lp10482
g10020
aa(lp10483
(lp10484
F4939.33
aF2527.35
aaa(lp10485
g10484
aa(lp10486
g10484
aa(lp10487
g10372
aa(lp10488
g10372
aa(lp10489
g10372
aa(lp10490
g10377
aa(lp10491
g10377
aa(lp10492
g10377
aa(lp10493
g10377
aa(lp10494
g10377
aa(lp10495
(lp10496
F4897.44
aF2777.33
aaa(lp10497
g10496
aa(lp10498
(lp10499
F4890.47
aF2823.41
aaa(lp10500
g10269
aa(lp10501
(lp10502
F4915.4
aF2855.57
aaa(lp10503
g10272
aa(lp10504
(lp10505
F4906.09
aF2915.6
aaa(lp10506
(lp10507
F4903.59
aF2930.32
aa(lp10508
F4904.59
aF2924.44
aaa(lp10509
g10507
ag10508
aa(lp10510
(lp10511
F4891.34
aF2980.81
aa(lp10512
F4895.21
aF2983.12
aaa(lp10513
g10392
aa(lp10514
g10392
aa(lp10515
g10166
aa(lp10516
g10166
aa(lp10517
g10166
aa(lp10518
g10397
aa(lp10519
g10397
aa(lp10520
g10397
aa(lp10521
g10290
aa(lp10522
g10290
aa(lp10523
g10290
aa(lp10524
g10176
ag10177
aa(lp10525
(lp10526
F4934.67
aF3256.01
aaa(lp10527
g10062
aa(lp10528
(lp10529
F4926.2
aF3308.16
aaa(lp10530
g10529
aa(lp10531
g10183
ag10184
aa(lp10532
g10183
ag10184
aa(lp10533
g10413
aa(lp10534
g10413
aa(lp10535
g10416
aa(lp10536
g10416
aa(lp10537
g10416
aa(lp10538
g10416
aa(lp10539
g10416
aa(lp10540
g10195
aa(lp10541
(lp10542
F4937.82
aF3573.78
aa(lp10543
F4948.45
aF3576.26
aaa(lp10544
g10542
ag10543
aa(lp10545
g10542
ag10543
aaa(lp10546
(lp10547
g9848
aa(lp10548
g9848
aa(lp10549
g9848
aa(lp10550
g9848
aa(lp10551
g9848
aa(lp10552
(lp10553
F4989.17
aF1475.89
aaa(lp10554
g9852
aa(lp10555
g9852
aa(lp10556
g10435
aa(lp10557
g10435
aa(lp10558
g10435
aa(lp10559
g10438
aa(lp10560
g10438
aa(lp10561
g10442
aa(lp10562
g10442
aa(lp10563
g10442
aa(lp10564
g10442
aa(lp10565
(lp10566
F4939.24
aF1786.57
aaa(lp10567
g10566
aa(lp10568
g10330
aa(lp10569
g10330
aa(lp10570
g10330
aa(lp10571
(lp10572
F4922.48
aF1890.54
aaa(lp10573
g10572
aa(lp10574
g10572
aa(lp10575
g10572
aa(lp10576
(lp10577
F4908.28
aF1979.16
aaa(lp10578
g10577
aa(lp10579
g10230
aa(lp10580
g10230
aa(lp10581
g10230
aa(lp10582
g10344
aa(lp10583
g10344
aa(lp10584
g10344
aa(lp10585
g10344
aa(lp10586
g10349
aa(lp10587
g10349
aa(lp10588
g10349
aa(lp10589
g10128
aa(lp10590
g10128
aa(lp10591
g10471
aa(lp10592
g10471
aa(lp10593
g10471
aa(lp10594
g10359
aa(lp10595
g10359
aa(lp10596
g10359
aa(lp10597
g10359
aa(lp10598
g10477
ag10478
aa(lp10599
g10477
ag10478
aa(lp10600
g10481
aa(lp10601
g10481
aa(lp10602
g10484
aa(lp10603
g10484
aa(lp10604
g10484
aa(lp10605
g10372
aa(lp10606
g10372
aa(lp10607
g10372
aa(lp10608
g10372
aa(lp10609
g10377
aa(lp10610
g10377
aa(lp10611
g10377
aa(lp10612
g10377
aa(lp10613
g10496
aa(lp10614
g10496
aa(lp10615
g10499
aa(lp10616
(lp10617
F4920.17
aF2828.12
aaa(lp10618
g10502
aa(lp10619
(lp10620
F4912.67
aF2876.95
aaa(lp10621
g10505
aa(lp10622
g10507
ag10508
aa(lp10623
g10507
ag10508
aa(lp10624
g10511
ag10512
aa(lp10625
g10392
aa(lp10626
g10392
aa(lp10627
g10166
aa(lp10628
g10166
aa(lp10629
g10166
aa(lp10630
g10397
aa(lp10631
g10397
aa(lp10632
(lp10633
F4951.82
aF3152.54
aaa(lp10634
(lp10635
F4927.32
aF3203.23
aaa(lp10636
g10635
aa(lp10637
g10635
aa(lp10638
g10635
aa(lp10639
g10526
aa(lp10640
g10529
aa(lp10641
g10529
aa(lp10642
g10529
aa(lp10643
(lp10644
F4937.51
aF3362.42
aaa(lp10645
g10413
aa(lp10646
g10413
aa(lp10647
g10413
aa(lp10648
g10413
aa(lp10649
g10416
aa(lp10650
g10416
aa(lp10651
g10416
aa(lp10652
g10542
ag10543
aa(lp10653
g10542
ag10543
aa(lp10654
g10542
ag10543
aa(lp10655
g10542
ag10543
aa(lp10656
g10542
ag10543
aaa(lp10657
(lp10658
g9848
aa(lp10659
g9848
aa(lp10660
g9848
aa(lp10661
g9848
aa(lp10662
g10553
aa(lp10663
g10553
aa(lp10664
g10553
aa(lp10665
g10435
aa(lp10666
g10435
aa(lp10667
g10435
aa(lp10668
g10435
aa(lp10669
g10438
aa(lp10670
g10438
aa(lp10671
g10442
aa(lp10672
g10442
aa(lp10673
g10442
aa(lp10674
g10442
aa(lp10675
g10566
aa(lp10676
g10566
aa(lp10677
g10566
aa(lp10678
g10330
aa(lp10679
g10330
aa(lp10680
g10572
aa(lp10681
g10572
aa(lp10682
g10572
aa(lp10683
g10572
aa(lp10684
g10577
aa(lp10685
g10577
aa(lp10686
(lp10687
F4961.82
aF2003.33
aaa(lp10688
g10687
aa(lp10689
g10687
aa(lp10690
g10344
aa(lp10691
g10344
aa(lp10692
(lp10693
F4999.24
aF2115.71
aaa(lp10694
g10693
aa(lp10695
g10693
aa(lp10696
g10349
aa(lp10697
g10349
aa(lp10698
(lp10699
F4986.26
aF2220.12
aaa(lp10700
g10471
aa(lp10701
g10471
aa(lp10702
g10471
aa(lp10703
g10471
aa(lp10704
g10471
aa(lp10705
(lp10706
F4951.9
aF2360.56
aaa(lp10707
g10706
aa(lp10708
g10477
ag10478
aa(lp10709
g10477
ag10478
aa(lp10710
g10477
ag10478
aa(lp10711
g10481
aa(lp10712
g10481
aa(lp10713
g10484
aa(lp10714
g10484
aa(lp10715
g10484
aa(lp10716
g10372
aa(lp10717
g10372
aa(lp10718
g10372
aa(lp10719
g10372
aa(lp10720
g10372
aa(lp10721
(lp10722
F4936.57
aF2728.06
aaa(lp10723
g10722
aa(lp10724
g10722
aa(lp10725
g10496
aa(lp10726
g10496
aa(lp10727
g10499
aa(lp10728
g10617
aa(lp10729
g10502
aa(lp10730
g10620
aa(lp10731
g10505
aa(lp10732
(lp10733
F4961.59
aF2933.65
aaa(lp10734
g10733
aa(lp10735
g10511
ag10512
aa(lp10736
g10392
aa(lp10737
g10392
aa(lp10738
g10166
aa(lp10739
g10166
aa(lp10740
g10633
aa(lp10741
g10633
aa(lp10742
g10633
aa(lp10743
g10633
aa(lp10744
g10633
aa(lp10745
g10635
aa(lp10746
g10635
aa(lp10747
g10526
aa(lp10748
g10526
aa(lp10749
g10526
aa(lp10750
g10529
aa(lp10751
g10644
aa(lp10752
g10644
aa(lp10753
g10644
aa(lp10754
g10413
aa(lp10755
g10413
aa(lp10756
g10413
aa(lp10757
(lp10758
F4965.11
aF3472.34
aaa(lp10759
g10758
aa(lp10760
g10542
ag10543
aa(lp10761
g10542
ag10543
aa(lp10762
g10542
ag10543
aa(lp10763
g10542
ag10543
aa(lp10764
g10542
ag10543
aa(lp10765
g10542
ag10543
aaa(lp10766
(lp10767
g10553
aa(lp10768
g10553
aa(lp10769
g10553
aa(lp10770
g10553
aa(lp10771
g10553
aa(lp10772
g10553
aa(lp10773
g10553
aa(lp10774
g10435
aa(lp10775
g10435
aa(lp10776
g10435
aa(lp10777
g10435
aa(lp10778
g10438
aa(lp10779
g10438
aa(lp10780
(lp10781
F4955.91
aF1682.71
aaa(lp10782
g10781
aa(lp10783
g10442
aa(lp10784
(lp10785
F4982.52
aF1727.08
aaa(lp10786
g10566
aa(lp10787
g10566
aa(lp10788
g10566
aa(lp10789
g10330
aa(lp10790
g10330
aa(lp10791
g10572
aa(lp10792
g10572
aa(lp10793
g10572
aa(lp10794
g10687
aa(lp10795
g10687
aa(lp10796
g10687
aa(lp10797
g10687
aa(lp10798
g10687
aa(lp10799
g10687
aa(lp10800
g10687
aa(lp10801
g10693
aa(lp10802
g10693
aa(lp10803
g10693
aa(lp10804
g10693
aa(lp10805
g10699
aa(lp10806
g10699
aa(lp10807
g10699
aa(lp10808
g10699
aa(lp10809
(lp10810
F4969.59
aF2325.42
aaa(lp10811
g10810
aa(lp10812
g10810
aa(lp10813
g10810
aa(lp10814
(lp10815
F4972.55
aF2364.34
aaa(lp10816
(lp10817
F4960.77
aF2379.91
aaa(lp10818
g10817
aa(lp10819
g10477
ag10478
aa(lp10820
g10477
ag10478
aa(lp10821
g10481
aa(lp10822
(lp10823
F4968.32
aF2532.02
aaa(lp10824
g10823
aa(lp10825
g10823
aa(lp10826
g10823
aa(lp10827
g10372
aa(lp10828
g10372
aa(lp10829
g10372
aa(lp10830
g10372
aa(lp10831
g10372
aa(lp10832
g10722
aa(lp10833
g10722
aa(lp10834
g10722
aa(lp10835
g10496
aa(lp10836
g10496
aa(lp10837
g10499
aa(lp10838
g10617
aa(lp10839
g10502
aa(lp10840
g10620
aa(lp10841
g10733
aa(lp10842
g10733
aa(lp10843
g10733
aa(lp10844
g10733
aa(lp10845
g10392
aa(lp10846
(lp10847
F5039.47
aF3007.26
aaa(lp10848
g10166
aa(lp10849
(lp10850
F5030.47
aF3059.57
aaa(lp10851
g10633
aa(lp10852
g10633
aa(lp10853
g10633
aa(lp10854
g10633
aa(lp10855
g10633
aa(lp10856
g10635
aa(lp10857
g10635
aa(lp10858
g10526
aa(lp10859
g10526
aa(lp10860
g10526
aa(lp10861
g10529
aa(lp10862
g10644
aa(lp10863
g10644
aa(lp10864
g10644
aa(lp10865
g10413
aa(lp10866
g10413
aa(lp10867
g10758
aa(lp10868
g10758
aa(lp10869
g10758
aa(lp10870
g10758
aa(lp10871
g10542
ag10543
aa(lp10872
g10542
ag10543
aa(lp10873
g10542
ag10543
aa(lp10874
g10542
ag10543
aa(lp10875
g10542
ag10543
aaa(lp10876
(lp10877
g10553
aa(lp10878
g10553
aa(lp10879
g10553
aa(lp10880
g10553
aa(lp10881
g10553
aa(lp10882
g10553
aa(lp10883
g10553
aa(lp10884
g10553
aa(lp10885
g10435
aa(lp10886
g10435
aa(lp10887
g10435
aa(lp10888
g10438
aa(lp10889
g10438
aa(lp10890
g10781
aa(lp10891
g10781
aa(lp10892
g10785
aa(lp10893
g10785
aa(lp10894
g10785
aa(lp10895
g10566
aa(lp10896
g10566
aa(lp10897
g10330
aa(lp10898
g10330
aa(lp10899
g10572
aa(lp10900
g10572
aa(lp10901
g10572
aa(lp10902
g10687
aa(lp10903
g10687
aa(lp10904
g10687
aa(lp10905
g10687
aa(lp10906
g10687
aa(lp10907
g10687
aa(lp10908
g10693
aa(lp10909
g10693
aa(lp10910
g10693
aa(lp10911
g10693
aa(lp10912
g10693
aa(lp10913
g10699
aa(lp10914
g10699
aa(lp10915
g10699
aa(lp10916
g10699
aa(lp10917
g10699
aa(lp10918
g10810
aa(lp10919
g10810
aa(lp10920
(lp10921
F5000.34
aF2330.98
aaa(lp10922
(lp10923
F4994.34
aF2368.34
aaa(lp10924
g10817
aa(lp10925
(lp10926
F4988.52
aF2405.04
aaa(lp10927
(lp10928
F4983.93
aF2434.06
aaa(lp10929
g10928
aa(lp10930
g10481
aa(lp10931
g10823
aa(lp10932
g10823
aa(lp10933
g10823
aa(lp10934
g10823
aa(lp10935
g10372
aa(lp10936
g10372
aa(lp10937
g10372
aa(lp10938
g10372
aa(lp10939
g10372
aa(lp10940
g10722
aa(lp10941
g10722
aa(lp10942
g10722
aa(lp10943
g10496
aa(lp10944
g10496
aa(lp10945
g10499
aa(lp10946
g10617
aa(lp10947
g10502
aa(lp10948
g10620
aa(lp10949
g10733
aa(lp10950
g10733
aa(lp10951
g10733
aa(lp10952
g10733
aa(lp10953
g10847
aa(lp10954
g10847
aa(lp10955
g10847
aa(lp10956
g10850
aa(lp10957
g10850
aa(lp10958
g10633
aa(lp10959
g10633
aa(lp10960
g10633
aa(lp10961
g10633
aa(lp10962
g10635
aa(lp10963
g10635
aa(lp10964
g10526
aa(lp10965
g10526
aa(lp10966
g10526
aa(lp10967
g10529
aa(lp10968
g10644
aa(lp10969
g10644
aa(lp10970
g10644
aa(lp10971
g10413
aa(lp10972
g10413
aa(lp10973
g10758
aa(lp10974
g10758
aa(lp10975
g10758
aa(lp10976
g10758
aa(lp10977
g10542
ag10543
aa(lp10978
g10542
ag10543
aa(lp10979
g10542
ag10543
aa(lp10980
g10542
ag10543
aa(lp10981
g10542
ag10543
aaa(lp10982
(lp10983
g10553
aa(lp10984
g10553
aa(lp10985
g10553
aa(lp10986
g10553
aa(lp10987
g10553
aa(lp10988
g10553
aa(lp10989
g10553
aa(lp10990
g10553
aa(lp10991
g10435
aa(lp10992
g10435
aa(lp10993
g10435
aa(lp10994
g10438
aa(lp10995
g10438
aa(lp10996
g10781
aa(lp10997
g10781
aa(lp10998
g10785
aa(lp10999
g10785
aa(lp11000
g10785
aa(lp11001
g10566
aa(lp11002
g10566
aa(lp11003
g10330
aa(lp11004
g10330
aa(lp11005
g10572
aa(lp11006
g10572
aa(lp11007
g10572
aa(lp11008
g10687
aa(lp11009
g10687
aa(lp11010
g10687
aa(lp11011
g10687
aa(lp11012
g10687
aa(lp11013
g10687
aa(lp11014
g10693
aa(lp11015
g10693
aa(lp11016
g10693
aa(lp11017
g10693
aa(lp11018
g10693
aa(lp11019
g10699
aa(lp11020
g10699
aa(lp11021
g10699
aa(lp11022
g10699
aa(lp11023
g10699
aa(lp11024
g10810
aa(lp11025
g10810
aa(lp11026
g10921
aa(lp11027
g10923
aa(lp11028
g10817
aa(lp11029
g10926
aa(lp11030
g10928
aa(lp11031
g10928
aa(lp11032
g10481
aa(lp11033
g10823
aa(lp11034
g10823
aa(lp11035
g10823
aa(lp11036
g10823
aa(lp11037
g10372
aa(lp11038
g10372
aa(lp11039
g10372
aa(lp11040
g10372
aa(lp11041
g10372
aa(lp11042
g10722
aa(lp11043
g10722
aa(lp11044
g10722
aa(lp11045
g10496
aa(lp11046
g10496
aa(lp11047
g10499
aa(lp11048
g10617
aa(lp11049
g10502
aa(lp11050
g10620
aa(lp11051
g10733
aa(lp11052
g10733
aa(lp11053
g10733
aa(lp11054
g10847
aa(lp11055
g10847
aa(lp11056
g10847
aa(lp11057
g10847
aa(lp11058
g10850
aa(lp11059
g10850
aa(lp11060
g10850
aa(lp11061
g10633
aa(lp11062
g10633
aa(lp11063
g10633
aa(lp11064
g10635
aa(lp11065
g10635
aa(lp11066
g10526
aa(lp11067
g10526
aa(lp11068
g10526
aa(lp11069
g10529
aa(lp11070
g10644
aa(lp11071
g10644
aa(lp11072
g10644
aa(lp11073
g10413
aa(lp11074
g10413
aa(lp11075
g10758
aa(lp11076
g10758
aa(lp11077
g10758
aa(lp11078
g10758
aa(lp11079
g10542
ag10543
aa(lp11080
g10542
ag10543
aa(lp11081
g10542
ag10543
aa(lp11082
g10542
ag10543
aa(lp11083
g10542
ag10543
aaa(lp11084
(lp11085
g10553
aa(lp11086
g10553
aa(lp11087
g10553
aa(lp11088
g10553
aa(lp11089
g10553
aa(lp11090
g10553
aa(lp11091
g10553
aa(lp11092
g10553
aa(lp11093
g10435
aa(lp11094
g10435
aa(lp11095
g10435
aa(lp11096
g10438
aa(lp11097
g10438
aa(lp11098
g10781
aa(lp11099
g10781
aa(lp11100
g10785
aa(lp11101
g10785
aa(lp11102
g10785
aa(lp11103
g10566
aa(lp11104
g10566
aa(lp11105
g10330
aa(lp11106
g10330
aa(lp11107
g10572
aa(lp11108
g10572
aa(lp11109
g10572
aa(lp11110
g10687
aa(lp11111
g10687
aa(lp11112
g10687
aa(lp11113
g10687
aa(lp11114
g10687
aa(lp11115
g10687
aa(lp11116
g10693
aa(lp11117
g10693
aa(lp11118
g10693
aa(lp11119
g10693
aa(lp11120
g10693
aa(lp11121
g10699
aa(lp11122
g10699
aa(lp11123
g10699
aa(lp11124
g10699
aa(lp11125
g10699
aa(lp11126
g10810
aa(lp11127
g10810
aa(lp11128
g10921
aa(lp11129
g10923
aa(lp11130
g10817
aa(lp11131
g10926
aa(lp11132
g10928
aa(lp11133
g10928
aa(lp11134
g10481
aa(lp11135
g10823
aa(lp11136
g10823
aa(lp11137
g10823
aa(lp11138
g10823
aa(lp11139
g10372
aa(lp11140
g10372
aa(lp11141
g10372
aa(lp11142
g10372
aa(lp11143
g10372
aa(lp11144
g10722
aa(lp11145
g10722
aa(lp11146
g10722
aa(lp11147
g10496
aa(lp11148
g10496
aa(lp11149
g10499
aa(lp11150
g10617
aa(lp11151
g10502
aa(lp11152
g10620
aa(lp11153
g10733
aa(lp11154
g10733
aa(lp11155
g10847
aa(lp11156
g10847
aa(lp11157
g10847
aa(lp11158
g10847
aa(lp11159
g10847
aa(lp11160
g10850
aa(lp11161
g10850
aa(lp11162
g10850
aa(lp11163
g10850
aa(lp11164
g10633
aa(lp11165
g10633
aa(lp11166
g10635
aa(lp11167
g10635
aa(lp11168
g10526
aa(lp11169
g10526
aa(lp11170
g10526
aa(lp11171
g10529
aa(lp11172
g10644
aa(lp11173
g10644
aa(lp11174
g10644
aa(lp11175
g10413
aa(lp11176
g10413
aa(lp11177
g10758
aa(lp11178
g10758
aa(lp11179
g10758
aa(lp11180
g10758
aa(lp11181
g10542
ag10543
aa(lp11182
g10542
ag10543
aa(lp11183
g10542
ag10543
aa(lp11184
g10542
ag10543
aa(lp11185
g10542
ag10543
aaa.